

Microchip Technology PIC18 LITE Macro Assembler V1.34 build -361300703 
                                                                                               Sat Mar 28 15:45:34 2015

Microchip Technology Omniscient Code Generator (Lite mode) build 201502162209
     1                           	processor	18F45K20
     2                           	fnconf	rparam,??,?,0
     3                           	opt	pw 120
     4                           	opt	lm
     5                           	psect	_LED_LookupTable_const,global,ovrld,reloc=2,class=CODE,delta=1
     6                           	psect	nvCOMRAM,global,class=COMRAM,space=1,delta=1
     7                           	psect	cinit,global,reloc=2,class=CODE,delta=1
     8                           	psect	cstackCOMRAM,global,class=COMRAM,space=1,delta=1
     9                           	psect	text0,global,reloc=2,class=CODE,delta=1
    10                           	psect	text1,global,reloc=2,class=CODE,delta=1
    11                           	psect	text2,global,reloc=2,class=CODE,delta=1
    12                           	psect	text3,global,reloc=2,class=CODE,delta=1
    13                           	psect	text4,global,reloc=2,class=CODE,delta=1
    14                           	psect	smallconst,global,reloc=2,class=SMALLCONST,delta=1
    15                           	psect	intsave_regs,global,class=BIGRAM,space=1,delta=1
    16                           	psect	rparam,global,class=COMRAM,space=1,delta=1
    17  0000                     _LED_LookupTable_absconstaddr	set	384
    18  0000                     _LED_LookupTable_absconstaddr	set	384
    19                           
    20                           	psect	_LED_LookupTable_const
    21  000180                     __p_LED_LookupTable_const:
    22                           	opt stack 0
    23  000180                     _LED_LookupTable:
    24                           	opt stack 0
    25  000180  00                 	db	0
    26  000181  01                 	db	1
    27  000182  02                 	db	2
    28  000183  03                 	db	3
    29  000184  05                 	db	5
    30  000185  07                 	db	7
    31  000186  0B                 	db	11
    32  000187  0F                 	db	15
    33  000188  17                 	db	23
    34  000189  1F                 	db	31
    35  00018A  2F                 	db	47
    36  00018B  3F                 	db	63
    37  00018C  5F                 	db	95
    38  00018D  7F                 	db	127
    39  00018E  BF                 	db	191
    40  00018F  FF                 	db	255
    41  000190                     __end_of_LED_LookupTable:
    42                           	opt stack 0
    43                           
    44                           	psect	nvCOMRAM
    45  000009                     __pnvCOMRAM:
    46                           	opt stack 0
    47  000009                     _LED_Number:
    48                           	opt stack 0
    49  000009                     	ds	1
    50  0000                     _ANSEL	set	3966
    51  0000                     _ANSELH	set	3967
    52  0000                     _ANSELbits	set	3966
    53  0000                     _LATD	set	3980
    54  0000                     _TRISAbits	set	3986
    55  0000                     _TRISBbits	set	3987
    56  0000                     _TRISD	set	3989
    57  0000                     _WPUBbits	set	3964
    58  0000                     _ADCON0	set	4034
    59  0000                     _ADCON0bits	set	4034
    60  0000                     _ADCON1	set	4033
    61  0000                     _ADCON2	set	4032
    62  0000                     _ADRESH	set	4036
    63  0000                     _INTCON2bits	set	4081
    64                           
    65                           ; #config settings
    66  0000                     
    67                           	psect	cinit
    68  000726                     __pcinit:
    69                           	opt stack 0
    70  000726                     start_initialization:
    71                           	opt stack 0
    72  000726                     __initialization:
    73                           	opt stack 0
    74  000726                     end_of_initialization:
    75                           	opt stack 0
    76  000726                     __end_of__initialization:
    77                           	opt stack 0
    78  000726  0E00               	movlw	low (__Lmediumconst shr (0+16))
    79  000728  6EF8               	movwf	tblptru,c
    80  00072A  0100               	movlb	0
    81  00072C  EF4C  F003         	goto	_main	;jump to C main() function
    82                           tblptru	equ	0xFF8
    83                           
    84                           	psect	cstackCOMRAM
    85  000001                     __pcstackCOMRAM:
    86                           	opt stack 0
    87  000001                     ?___awdiv:
    88                           	opt stack 0
    89  000001                     Delay1KTCYx@unit:
    90                           	opt stack 0
    91  000001                     ___awdiv@dividend:
    92                           	opt stack 0
    93                           
    94                           ; 2 bytes @ 0x0
    95  000001                     	ds	2
    96  000003                     ___awdiv@divisor:
    97                           	opt stack 0
    98                           
    99                           ; 2 bytes @ 0x2
   100  000003                     	ds	2
   101  000005                     ___awdiv@counter:
   102                           	opt stack 0
   103                           
   104                           ; 1 bytes @ 0x4
   105  000005                     	ds	1
   106  000006                     ___awdiv@sign:
   107                           	opt stack 0
   108                           
   109                           ; 1 bytes @ 0x5
   110  000006                     	ds	1
   111  000007                     ___awdiv@quotient:
   112                           	opt stack 0
   113                           
   114                           ; 2 bytes @ 0x6
   115  000007                     	ds	2
   116  000009                     tblptru	equ	0xFF8
   117                           
   118                           ; 0 bytes @ 0x8
   119 ;;
   120 ;;Main: autosize = 0, tempsize = 0, incstack = 0, save=0
   121 ;;
   122 ;; *************** function _main *****************
   123 ;; Defined at:
   124 ;;		line 66 in file "Throttle.c"
   125 ;; Parameters:    Size  Location     Type
   126 ;;		None
   127 ;; Auto vars:     Size  Location     Type
   128 ;;		None
   129 ;; Return value:  Size  Location     Type
   130 ;;		None               void
   131 ;; Registers used:
   132 ;;		wreg, status,2, status,0, tblptrl, tblptrh, tblptru, prodl, prodh, cstack
   133 ;; Tracked objects:
   134 ;;		On entry : 0/0
   135 ;;		On exit  : 0/0
   136 ;;		Unchanged: 0/0
   137 ;; Data sizes:     COMRAM   BANK0   BANK1   BANK2   BANK3   BANK4   BANK5
   138 ;;      Params:         0       0       0       0       0       0       0
   139 ;;      Locals:         0       0       0       0       0       0       0
   140 ;;      Temps:          0       0       0       0       0       0       0
   141 ;;      Totals:         0       0       0       0       0       0       0
   142 ;;Total ram usage:        0 bytes
   143 ;; Hardware stack levels required when called:    1
   144 ;; This function calls:
   145 ;;		_ADC_Convert
   146 ;;		_ADC_Init
   147 ;;		_Delay1KTCYx
   148 ;;		___awdiv
   149 ;; This function is called by:
   150 ;;		Startup code after reset
   151 ;; This function uses a non-reentrant model
   152 ;;
   153                           
   154                           	psect	text0
   155  000698                     __ptext0:
   156                           	opt stack 0
   157  000698                     _main:
   158                           	opt stack 30
   159                           
   160                           ;Throttle.c: 69: TRISD = 0b00000000;
   161                           
   162                           ;incstack = 0
   163  000698  0E00               	movlw	0
   164  00069A  6E95               	movwf	3989,c	;volatile
   165                           
   166                           ;Throttle.c: 70: TRISAbits.TRISA0 = 1;
   167  00069C  8092               	bsf	3986,0,c	;volatile
   168                           
   169                           ;Throttle.c: 72: INTCON2bits.RBPU = 0;
   170  00069E  9EF1               	bcf	intcon2,7,c	;volatile
   171                           
   172                           ;Throttle.c: 73: WPUBbits.WPUB0 = 1;
   173  0006A0  807C               	bsf	3964,0,c	;volatile
   174                           
   175                           ;Throttle.c: 76: TRISBbits.TRISB0 = 1;
   176  0006A2  8093               	bsf	3987,0,c	;volatile
   177                           
   178                           ;Throttle.c: 80: ADC_Init();
   179  0006A4  EC77  F003         	call	_ADC_Init	;wreg free
   180  0006A8  D000               	goto	l776
   181  0006AA                     l776:
   182                           
   183                           ;Throttle.c: 83: {
   184                           ;Throttle.c: 85: LED_Number = ADC_Convert();
   185  0006AA  EC8C  F003         	call	_ADC_Convert	;wreg free
   186  0006AE  6E09               	movwf	_LED_Number,c
   187                           
   188                           ;Throttle.c: 89: LED_Number = LED_Number / 16 ;
   189  0006B0  C009  F001         	movff	_LED_Number,___awdiv@dividend
   190  0006B4  6A02               	clrf	___awdiv@dividend+1,c
   191  0006B6  0E00               	movlw	0
   192  0006B8  6E04               	movwf	___awdiv@divisor+1,c
   193  0006BA  0E10               	movlw	16
   194  0006BC  6E03               	movwf	___awdiv@divisor,c
   195  0006BE  EC01  F003         	call	___awdiv	;wreg free
   196  0006C2  5001               	movf	?___awdiv,w,c
   197  0006C4  6E09               	movwf	_LED_Number,c
   198                           
   199                           ;Throttle.c: 92: LATD = LED_LookupTable[LED_Number];
   200  0006C6  5009               	movf	_LED_Number,w,c
   201  0006C8  0D01               	mullw	1
   202  0006CA  0E80               	movlw	128
   203  0006CC  24F3               	addwf	prodl,w,c
   204  0006CE  6EF6               	movwf	tblptrl,c
   205  0006D0  0E01               	movlw	1
   206  0006D2  20F4               	addwfc	prodh,w,c
   207  0006D4  6EF7               	movwf	tblptrh,c
   208  0006D6  6AF8               	clrf	tblptru,c
   209  0006D8  0E00               	movlw	0
   210  0006DA  22F8               	addwfc	tblptru,f,c
   211  0006DC  0008               	tblrd		*
   212  0006DE  CFF5 FF8C          	movff	tablat,3980	;volatile
   213                           
   214                           ;Throttle.c: 95: Delay1KTCYx(30);
   215  0006E2  0E1E               	movlw	30
   216  0006E4  EC83  F003         	call	_Delay1KTCYx
   217  0006E8  D7E0               	goto	l776
   218  0006EA  EF01  F000         	goto	start
   219  0006EE                     __end_of_main:
   220                           	opt stack 0
   221                           tblptru	equ	0xFF8
   222                           tblptrh	equ	0xFF7
   223                           tblptrl	equ	0xFF6
   224                           tablat	equ	0xFF5
   225                           prodh	equ	0xFF4
   226                           prodl	equ	0xFF3
   227                           intcon2	equ	0xFF1
   228                           
   229 ;; *************** function ___awdiv *****************
   230 ;; Defined at:
   231 ;;		line 8 in file "C:\Program Files (x86)\Microchip\xc8\v1.34\sources\common\awdiv.c"
   232 ;; Parameters:    Size  Location     Type
   233 ;;  dividend        2    0[COMRAM] int 
   234 ;;  divisor         2    2[COMRAM] int 
   235 ;; Auto vars:     Size  Location     Type
   236 ;;  quotient        2    6[COMRAM] int 
   237 ;;  sign            1    5[COMRAM] unsigned char 
   238 ;;  counter         1    4[COMRAM] unsigned char 
   239 ;; Return value:  Size  Location     Type
   240 ;;                  2    0[COMRAM] int 
   241 ;; Registers used:
   242 ;;		wreg, status,2, status,0
   243 ;; Tracked objects:
   244 ;;		On entry : 0/0
   245 ;;		On exit  : 0/0
   246 ;;		Unchanged: 0/0
   247 ;; Data sizes:     COMRAM   BANK0   BANK1   BANK2   BANK3   BANK4   BANK5
   248 ;;      Params:         4       0       0       0       0       0       0
   249 ;;      Locals:         4       0       0       0       0       0       0
   250 ;;      Temps:          0       0       0       0       0       0       0
   251 ;;      Totals:         8       0       0       0       0       0       0
   252 ;;Total ram usage:        8 bytes
   253 ;; Hardware stack levels used:    1
   254 ;; This function calls:
   255 ;;		Nothing
   256 ;; This function is called by:
   257 ;;		_main
   258 ;; This function uses a non-reentrant model
   259 ;;
   260                           
   261                           	psect	text1
   262  000602                     __ptext1:
   263                           	opt stack 0
   264  000602                     ___awdiv:
   265                           	opt stack 30
   266                           
   267                           ;incstack = 0
   268  000602  0E00               	movlw	0
   269  000604  6E06               	movwf	___awdiv@sign,c
   270  000606  AE04               	btfss	___awdiv@divisor+1,7,c
   271  000608  D007               	goto	l728
   272  00060A  6C03               	negf	___awdiv@divisor,c
   273  00060C  1E04               	comf	___awdiv@divisor+1,f,c
   274  00060E  B0D8               	btfsc	status,0,c
   275  000610  2A04               	incf	___awdiv@divisor+1,f,c
   276  000612  0E01               	movlw	1
   277  000614  6E06               	movwf	___awdiv@sign,c
   278  000616  D000               	goto	l728
   279  000618                     l728:
   280  000618  AE02               	btfss	___awdiv@dividend+1,7,c
   281  00061A  D007               	goto	l734
   282  00061C  6C01               	negf	___awdiv@dividend,c
   283  00061E  1E02               	comf	___awdiv@dividend+1,f,c
   284  000620  B0D8               	btfsc	status,0,c
   285  000622  2A02               	incf	___awdiv@dividend+1,f,c
   286  000624  0E01               	movlw	1
   287  000626  1A06               	xorwf	___awdiv@sign,f,c
   288  000628  D000               	goto	l734
   289  00062A                     l734:
   290  00062A  0E00               	movlw	0
   291  00062C  6E08               	movwf	___awdiv@quotient+1,c
   292  00062E  0E00               	movlw	0
   293  000630  6E07               	movwf	___awdiv@quotient,c
   294  000632  5003               	movf	___awdiv@divisor,w,c
   295  000634  1004               	iorwf	___awdiv@divisor+1,w,c
   296  000636  B4D8               	btfsc	status,2,c
   297  000638  D021               	goto	l756
   298  00063A  0E01               	movlw	1
   299  00063C  6E05               	movwf	___awdiv@counter,c
   300  00063E  D005               	goto	l742
   301  000640                     l740:
   302  000640  90D8               	bcf	status,0,c
   303  000642  3603               	rlcf	___awdiv@divisor,f,c
   304  000644  3604               	rlcf	___awdiv@divisor+1,f,c
   305  000646  2A05               	incf	___awdiv@counter,f,c
   306  000648  D000               	goto	l742
   307  00064A                     l742:
   308  00064A  BE04               	btfsc	___awdiv@divisor+1,7,c
   309  00064C  D002               	goto	l744
   310  00064E  D7F8               	goto	l740
   311  000650  D000               	goto	l744
   312  000652                     l744:
   313  000652  90D8               	bcf	status,0,c
   314  000654  3607               	rlcf	___awdiv@quotient,f,c
   315  000656  3608               	rlcf	___awdiv@quotient+1,f,c
   316  000658  5003               	movf	___awdiv@divisor,w,c
   317  00065A  5C01               	subwf	___awdiv@dividend,w,c
   318  00065C  5004               	movf	___awdiv@divisor+1,w,c
   319  00065E  5802               	subwfb	___awdiv@dividend+1,w,c
   320  000660  A0D8               	btfss	status,0,c
   321  000662  D006               	goto	l752
   322  000664  5003               	movf	___awdiv@divisor,w,c
   323  000666  5E01               	subwf	___awdiv@dividend,f,c
   324  000668  5004               	movf	___awdiv@divisor+1,w,c
   325  00066A  5A02               	subwfb	___awdiv@dividend+1,f,c
   326  00066C  8007               	bsf	___awdiv@quotient,0,c
   327  00066E  D000               	goto	l752
   328  000670                     l752:
   329  000670  90D8               	bcf	status,0,c
   330  000672  3204               	rrcf	___awdiv@divisor+1,f,c
   331  000674  3203               	rrcf	___awdiv@divisor,f,c
   332  000676  2E05               	decfsz	___awdiv@counter,f,c
   333  000678  D7EC               	goto	l744
   334  00067A  D000               	goto	l756
   335  00067C                     l756:
   336  00067C  5006               	movf	___awdiv@sign,w,c
   337  00067E  B4D8               	btfsc	status,2,c
   338  000680  D005               	goto	l760
   339  000682  6C07               	negf	___awdiv@quotient,c
   340  000684  1E08               	comf	___awdiv@quotient+1,f,c
   341  000686  B0D8               	btfsc	status,0,c
   342  000688  2A08               	incf	___awdiv@quotient+1,f,c
   343  00068A  D000               	goto	l760
   344  00068C                     l760:
   345  00068C  C007  F001         	movff	___awdiv@quotient,?___awdiv
   346  000690  C008  F002         	movff	___awdiv@quotient+1,?___awdiv+1
   347  000694  0012               	return	
   348  000696  0012               	return		;funcret
   349  000698                     __end_of___awdiv:
   350                           	opt stack 0
   351                           tblptru	equ	0xFF8
   352                           tblptrh	equ	0xFF7
   353                           tblptrl	equ	0xFF6
   354                           tablat	equ	0xFF5
   355                           prodh	equ	0xFF4
   356                           prodl	equ	0xFF3
   357                           intcon2	equ	0xFF1
   358                           status	equ	0xFD8
   359                           
   360 ;; *************** function _Delay1KTCYx *****************
   361 ;; Defined at:
   362 ;;		line 8 in file "C:\Program Files (x86)\Microchip\xc8\v1.34\sources\pic18\d1ktcyx.c"
   363 ;; Parameters:    Size  Location     Type
   364 ;;  unit            1    wreg     unsigned char 
   365 ;; Auto vars:     Size  Location     Type
   366 ;;  unit            1    0[COMRAM] unsigned char 
   367 ;; Return value:  Size  Location     Type
   368 ;;		None               void
   369 ;; Registers used:
   370 ;;		wreg
   371 ;; Tracked objects:
   372 ;;		On entry : 0/0
   373 ;;		On exit  : 0/0
   374 ;;		Unchanged: 0/0
   375 ;; Data sizes:     COMRAM   BANK0   BANK1   BANK2   BANK3   BANK4   BANK5
   376 ;;      Params:         0       0       0       0       0       0       0
   377 ;;      Locals:         1       0       0       0       0       0       0
   378 ;;      Temps:          0       0       0       0       0       0       0
   379 ;;      Totals:         1       0       0       0       0       0       0
   380 ;;Total ram usage:        1 bytes
   381 ;; Hardware stack levels used:    1
   382 ;; This function calls:
   383 ;;		Nothing
   384 ;; This function is called by:
   385 ;;		_main
   386 ;; This function uses a non-reentrant model
   387 ;;
   388                           
   389                           	psect	text2
   390  000706                     __ptext2:
   391                           	opt stack 0
   392  000706                     _Delay1KTCYx:
   393                           	opt stack 30
   394                           
   395                           ;incstack = 0
   396                           ;Delay1KTCYx@unit stored from wreg
   397  000706  6E01               	movwf	Delay1KTCYx@unit,c
   398  000708  0EFA               	movlw	250
   399  00070A                     u147:
   400  00070A  F000               	nop	
   401  00070C  2EE8               	decfsz	wreg,f,c
   402  00070E  D7FD               	goto	u147
   403  000710  2E01               	decfsz	Delay1KTCYx@unit,f,c
   404  000712  D7FA               	goto	l652
   405  000714  0012               	return	
   406  000716  0012               	return		;funcret
   407  000718                     __end_of_Delay1KTCYx:
   408                           	opt stack 0
   409                           tblptru	equ	0xFF8
   410                           tblptrh	equ	0xFF7
   411                           tblptrl	equ	0xFF6
   412                           tablat	equ	0xFF5
   413                           prodh	equ	0xFF4
   414                           prodl	equ	0xFF3
   415                           intcon2	equ	0xFF1
   416                           wreg	equ	0xFE8
   417                           status	equ	0xFD8
   418                           
   419 ;; *************** function _ADC_Init *****************
   420 ;; Defined at:
   421 ;;		line 99 in file "Throttle.c"
   422 ;; Parameters:    Size  Location     Type
   423 ;;		None
   424 ;; Auto vars:     Size  Location     Type
   425 ;;		None
   426 ;; Return value:  Size  Location     Type
   427 ;;		None               void
   428 ;; Registers used:
   429 ;;		wreg, status,2
   430 ;; Tracked objects:
   431 ;;		On entry : 0/0
   432 ;;		On exit  : 0/0
   433 ;;		Unchanged: 0/0
   434 ;; Data sizes:     COMRAM   BANK0   BANK1   BANK2   BANK3   BANK4   BANK5
   435 ;;      Params:         0       0       0       0       0       0       0
   436 ;;      Locals:         0       0       0       0       0       0       0
   437 ;;      Temps:          0       0       0       0       0       0       0
   438 ;;      Totals:         0       0       0       0       0       0       0
   439 ;;Total ram usage:        0 bytes
   440 ;; Hardware stack levels used:    1
   441 ;; This function calls:
   442 ;;		Nothing
   443 ;; This function is called by:
   444 ;;		_main
   445 ;; This function uses a non-reentrant model
   446 ;;
   447                           
   448                           	psect	text3
   449  0006EE                     __ptext3:
   450                           	opt stack 0
   451  0006EE                     _ADC_Init:
   452                           	opt stack 30
   453                           
   454                           ;Throttle.c: 104: ANSEL = 0;
   455                           
   456                           ;incstack = 0
   457  0006EE  0E00               	movlw	0
   458  0006F0  6E7E               	movwf	3966,c	;volatile
   459                           
   460                           ;Throttle.c: 105: ANSELH = 0;
   461  0006F2  0E00               	movlw	0
   462  0006F4  6E7F               	movwf	3967,c	;volatile
   463                           
   464                           ;Throttle.c: 106: ANSELbits.ANS0 = 1;
   465  0006F6  807E               	bsf	3966,0,c	;volatile
   466                           
   467                           ;Throttle.c: 110: ADCON1 = 0;
   468  0006F8  0E00               	movlw	0
   469  0006FA  6EC1               	movwf	4033,c	;volatile
   470                           
   471                           ;Throttle.c: 128: ADCON2 = 0b00111000;
   472  0006FC  0E38               	movlw	56
   473  0006FE  6EC0               	movwf	4032,c	;volatile
   474                           
   475                           ;Throttle.c: 131: ADCON0 = 0b00000001;
   476  000700  0E01               	movlw	1
   477  000702  6EC2               	movwf	4034,c	;volatile
   478  000704  0012               	return		;funcret
   479  000706                     __end_of_ADC_Init:
   480                           	opt stack 0
   481                           tblptru	equ	0xFF8
   482                           tblptrh	equ	0xFF7
   483                           tblptrl	equ	0xFF6
   484                           tablat	equ	0xFF5
   485                           prodh	equ	0xFF4
   486                           prodl	equ	0xFF3
   487                           intcon2	equ	0xFF1
   488                           wreg	equ	0xFE8
   489                           status	equ	0xFD8
   490                           
   491 ;; *************** function _ADC_Convert *****************
   492 ;; Defined at:
   493 ;;		line 136 in file "Throttle.c"
   494 ;; Parameters:    Size  Location     Type
   495 ;;		None
   496 ;; Auto vars:     Size  Location     Type
   497 ;;		None
   498 ;; Return value:  Size  Location     Type
   499 ;;                  1    wreg      unsigned char 
   500 ;; Registers used:
   501 ;;		wreg, status,2
   502 ;; Tracked objects:
   503 ;;		On entry : 0/0
   504 ;;		On exit  : 0/0
   505 ;;		Unchanged: 0/0
   506 ;; Data sizes:     COMRAM   BANK0   BANK1   BANK2   BANK3   BANK4   BANK5
   507 ;;      Params:         0       0       0       0       0       0       0
   508 ;;      Locals:         0       0       0       0       0       0       0
   509 ;;      Temps:          0       0       0       0       0       0       0
   510 ;;      Totals:         0       0       0       0       0       0       0
   511 ;;Total ram usage:        0 bytes
   512 ;; Hardware stack levels used:    1
   513 ;; This function calls:
   514 ;;		Nothing
   515 ;; This function is called by:
   516 ;;		_main
   517 ;; This function uses a non-reentrant model
   518 ;;
   519                           
   520                           	psect	text4
   521  000718                     __ptext4:
   522                           	opt stack 0
   523  000718                     _ADC_Convert:
   524                           	opt stack 30
   525                           
   526                           ;Throttle.c: 138: ADCON0bits.GO_DONE = 1;
   527                           
   528                           ;incstack = 0
   529  000718  82C2               	bsf	4034,1,c	;volatile
   530                           
   531                           ;Throttle.c: 139: while (ADCON0bits.GO_DONE == 1);
   532  00071A  D000               	goto	l50
   533  00071C                     l50:
   534  00071C  B2C2               	btfsc	4034,1,c	;volatile
   535  00071E  D7FE               	goto	l50
   536                           
   537                           ;Throttle.c: 140: return ADRESH;
   538  000720  50C4               	movf	4036,w,c	;volatile
   539  000722  0012               	return	
   540  000724  0012               	return		;funcret
   541  000726                     __end_of_ADC_Convert:
   542                           	opt stack 0
   543                           tblptru	equ	0xFF8
   544                           tblptrh	equ	0xFF7
   545                           tblptrl	equ	0xFF6
   546                           tablat	equ	0xFF5
   547                           prodh	equ	0xFF4
   548                           prodl	equ	0xFF3
   549                           intcon2	equ	0xFF1
   550                           wreg	equ	0xFE8
   551                           status	equ	0xFD8
   552                           
   553                           	psect	smallconst
   554  000600                     __psmallconst:
   555                           	opt stack 0
   556  000600  00                 	db	0
   557  000601  00                 	db	0	; dummy byte at the end
   558  0000                     tblptru	equ	0xFF8
   559                           tblptrh	equ	0xFF7
   560                           tblptrl	equ	0xFF6
   561                           tablat	equ	0xFF5
   562                           prodh	equ	0xFF4
   563                           prodl	equ	0xFF3
   564                           intcon2	equ	0xFF1
   565                           wreg	equ	0xFE8
   566                           status	equ	0xFD8
   567                           tblptru	equ	0xFF8
   568                           tblptrh	equ	0xFF7
   569                           tblptrl	equ	0xFF6
   570                           tablat	equ	0xFF5
   571                           prodh	equ	0xFF4
   572                           prodl	equ	0xFF3
   573                           intcon2	equ	0xFF1
   574                           wreg	equ	0xFE8
   575                           status	equ	0xFD8
   576                           
   577                           	psect	rparam
   578  0000                     tblptru	equ	0xFF8
   579                           tblptrh	equ	0xFF7
   580                           tblptrl	equ	0xFF6
   581                           tablat	equ	0xFF5
   582                           prodh	equ	0xFF4
   583                           prodl	equ	0xFF3
   584                           intcon2	equ	0xFF1
   585                           wreg	equ	0xFE8
   586                           status	equ	0xFD8


Data Sizes:
    Strings     0
    Constant    0
    Data        0
    BSS         0
    Persistent  1
    Stack       0

Auto Spaces:
    Space          Size  Autos    Used
    COMRAM           95      8       9
    BANK0           160      0       0
    BANK1           256      0       0
    BANK2           256      0       0
    BANK3           256      0       0
    BANK4           256      0       0
    BANK5           239      0       0

Pointer List with Targets:

    None.

Critical Paths under _main in COMRAM

    _main->___awdiv

Critical Paths under _main in BANK0

    None.

Critical Paths under _main in BANK1

    None.

Critical Paths under _main in BANK2

    None.

Critical Paths under _main in BANK3

    None.

Critical Paths under _main in BANK4

    None.

Critical Paths under _main in BANK5

    None.

Call Graph Tables:

 ---------------------------------------------------------------------------------
 (Depth) Function   	        Calls       Base Space   Used Autos Params    Refs
 ---------------------------------------------------------------------------------
 (0) _main                                                 0     0      0     401
                        _ADC_Convert
                           _ADC_Init
                        _Delay1KTCYx
                            ___awdiv
 ---------------------------------------------------------------------------------
 (1) ___awdiv                                              8     4      4     386
                                              0 COMRAM     8     4      4
 ---------------------------------------------------------------------------------
 (1) _Delay1KTCYx                                          1     1      0      15
                                              0 COMRAM     1     1      0
 ---------------------------------------------------------------------------------
 (1) _ADC_Init                                             0     0      0       0
 ---------------------------------------------------------------------------------
 (1) _ADC_Convert                                          0     0      0       0
 ---------------------------------------------------------------------------------
 Estimated maximum stack depth 1
 ---------------------------------------------------------------------------------

 Call Graph Graphs:

 _main (ROOT)
   _ADC_Convert
   _ADC_Init
   _Delay1KTCYx
   ___awdiv

 Address spaces:
Name               Size   Autos  Total    Cost      Usage
BITCOMRAM           5F      0       0       0        0.0%
EEDATA             100      0       0       0        0.0%
NULL                 0      0       0       0        0.0%
CODE                 0      0       0       0        0.0%
COMRAM              5F      8       9       1        9.5%
STACK                0      0       0       2        0.0%
BITBANK0            A0      0       0       3        0.0%
BANK0               A0      0       0       4        0.0%
BITBANK1           100      0       0       5        0.0%
BANK1              100      0       0       6        0.0%
BITBANK2           100      0       0       7        0.0%
BANK2              100      0       0       8        0.0%
BITBANK3           100      0       0       9        0.0%
BANK3              100      0       0      10        0.0%
BITBANK4           100      0       0      11        0.0%
BANK4              100      0       0      12        0.0%
BANK5               EF      0       0      13        0.0%
ABS                  0      0       9      14        0.0%
BITBANK5            EF      0       0      15        0.0%
BIGRAM             5EE      0       0      16        0.0%
DATA                 0      0       9      17        0.0%
BITSFR_5             0      0       0      40        0.0%
SFR_5                0      0       0      40        0.0%
BITSFR_4             0      0       0      40        0.0%
SFR_4                0      0       0      40        0.0%
BITSFR_3             0      0       0      40        0.0%
SFR_3                0      0       0      40        0.0%
BITSFR_2             0      0       0      40        0.0%
SFR_2                0      0       0      40        0.0%
BITSFR_1             0      0       0      40        0.0%
SFR_1                0      0       0      40        0.0%
BITSFR               0      0       0      40        0.0%
SFR                  0      0       0      40        0.0%


Microchip Technology PIC18 Macro Assembler V1.34 build -361300703 
Symbol Table                                                                                   Sat Mar 28 15:45:34 2015

                          l50 071C                  ___awdiv@sign 0006                  __CFG_CP0$OFF 000000  
                __CFG_CP1$OFF 000000                  __CFG_CP2$OFF 000000                  __CFG_CP3$OFF 000000  
                         l652 0708                           l740 0640                           l742 064A  
                         l734 062A                           l760 068C                           l752 0670  
                         l744 0652                           l728 0618                           l756 067C  
                         l776 06AA                  __CFG_CPB$OFF 000000                           u147 070A  
                __CFG_CPD$OFF 000000                  __CFG_BORV$30 000000                           wreg 000FE8  
                __CFG_LVP$OFF 000000          __size_of_ADC_Convert 000E                          _LATD 000F8C  
                        _main 0698              __end_of_ADC_Init 0706                          prodh 000FF4  
                        prodl 000FF3                          start 0002                 __CFG_IESO$OFF 000000  
                ___param_bank 000010                   _Delay1KTCYx 0706                         ?_main 0001  
             __end_of___awdiv 0698                         _ANSEL 000F7E               ___awdiv@divisor 0003  
             ___awdiv@counter 0005                         _TRISD 000F95                 __CFG_PWRT$OFF 000000  
               __CFG_WRT0$OFF 000000                 __CFG_WRT1$OFF 000000                 __CFG_WRT2$OFF 000000  
               __CFG_WRT3$OFF 000000                __CFG_EBTR0$OFF 000000                __CFG_FCMEN$OFF 000000  
              __CFG_EBTR1$OFF 000000                __CFG_EBTR2$OFF 000000                __CFG_EBTR3$OFF 000000  
               __CFG_WRTB$OFF 000000                 __CFG_WRTC$OFF 000000                 __CFG_WRTD$OFF 000000  
              __CFG_EBTRB$OFF 000000                         tablat 000FF5                         status 000FD8  
              __CFG_PBADEN$ON 000000               __initialization 0726                  __end_of_main 06EE  
                      ??_main 0009                 __activetblptr 000002                        _ADCON0 000FC2  
                      _ADCON1 000FC1                        _ADCON2 000FC0                        _ADRESH 000FC4  
            ___awdiv@dividend 0001                        _ANSELH 000F7F                __CFG_WDTEN$OFF 000000  
              __CFG_XINST$OFF 000000                     ??___awdiv 0005                __CFG_STVREN$ON 000000  
            ___awdiv@quotient 0007                     ?_ADC_Init 0001                  __mediumconst 0000  
                      tblptrh 000FF7                        tblptrl 000FF6                        tblptru 000FF8  
                  __accesstop 0060       __end_of__initialization 0726                 ___rparam_used 000001  
              __pcstackCOMRAM 0001                    ??_ADC_Init 0001               __CFG_LPT1OSC$ON 000000  
                  __pnvCOMRAM 0009                  ?_Delay1KTCYx 0001  _LED_LookupTable_absconstaddr 000180  
             _LED_LookupTable 0180                 ??_ADC_Convert 0001                       __Hparam 0000  
                     __Lparam 0000                       ___awdiv 0602                  __psmallconst 0600  
                     __pcinit 0726                     _ANSELbits 000F7E                       __ramtop 0600  
                     __ptext0 0698                       __ptext1 0602                       __ptext2 0706  
                     __ptext3 06EE                       __ptext4 0718          end_of_initialization 0726  
         __end_of_ADC_Convert 0726                 __Lmediumconst 0000       __end_of_LED_LookupTable 0190  
                   _TRISAbits 000F92                     _TRISBbits 000F93             __size_of_ADC_Init 0018  
        __size_of_Delay1KTCYx 0012           start_initialization 0726                   _ADC_Convert 0718  
             Delay1KTCYx@unit 0001             __CFG_CCP2MX$PORTC 000000                      ?___awdiv 0001  
                 __smallconst 0600                      _ADC_Init 06EE              __CFG_WDTPS$32768 000000  
                  _ADCON0bits 000FC2                      _WPUBbits 000F7C                   _INTCON2bits 000FF1  
                    __Hrparam 0000                      __Lrparam 0000            __CFG_BOREN$SBORDIS 000000  
            __size_of___awdiv 0096                  ?_ADC_Convert 0001                 __size_of_main 0056  
               ??_Delay1KTCYx 0001      __p_LED_LookupTable_const 0180                    _LED_Number 0009  
         __end_of_Delay1KTCYx 0718             __CFG_FOSC$INTIO67 000000  
