

Microchip Technology PIC18 LITE Macro Assembler V1.34 build -361300703 
                                                                                               Thu Apr 16 09:02:52 2015

Microchip Technology Omniscient Code Generator (Lite mode) build 201502162209
     1                           	processor	18F45K20
     2                           	fnconf	rparam,??,?,0
     3                           	opt	pw 120
     4                           	opt	lm
     5                           	psect	_ADC_ThrottleLED_Lookup_const,global,ovrld,reloc=2,class=CODE,delta=1
     6                           	psect	_ADC_ThrottlePWM_Lookup_const,global,ovrld,reloc=2,class=CODE,delta=1
     7                           	psect	nvCOMRAM,global,class=COMRAM,space=1,delta=1
     8                           	psect	cinit,global,reloc=2,class=CODE,delta=1
     9                           	psect	cstackCOMRAM,global,class=COMRAM,space=1,delta=1
    10                           	psect	text0,global,reloc=2,class=CODE,delta=1
    11                           	psect	text1,global,reloc=2,class=CODE,delta=1
    12                           	psect	text2,global,reloc=2,class=CODE,delta=1
    13                           	psect	text3,global,reloc=2,class=CODE,delta=1
    14                           	psect	text4,global,reloc=2,class=CODE,delta=1
    15                           	psect	smallconst,global,reloc=2,class=SMALLCONST,delta=1
    16                           	psect	intsave_regs,global,class=BIGRAM,space=1,delta=1
    17                           	psect	rparam,global,class=COMRAM,space=1,delta=1
    18  0000                     _ADC_ThrottleLED_Lookup_absconstaddr	set	384
    19  0000                     _ADC_ThrottlePWM_Lookup_absconstaddr	set	384
    20  0000                     _ADC_ThrottleLED_Lookup_absconstaddr	set	384
    21                           
    22                           	psect	_ADC_ThrottleLED_Lookup_const
    23  000180                     __p_ADC_ThrottleLED_Lookup_const:
    24                           	opt stack 0
    25  000180                     _ADC_ThrottleLED_Lookup:
    26                           	opt stack 0
    27  000180  00                 	db	0
    28  000181  01                 	db	1
    29  000182  02                 	db	2
    30  000183  03                 	db	3
    31  000184  05                 	db	5
    32  000185  07                 	db	7
    33  000186  0B                 	db	11
    34  000187  0F                 	db	15
    35  000188  17                 	db	23
    36  000189  1F                 	db	31
    37  00018A  2F                 	db	47
    38  00018B  3F                 	db	63
    39  00018C  5F                 	db	95
    40  00018D  7F                 	db	127
    41  00018E  BF                 	db	191
    42  00018F  FF                 	db	255
    43  000190                     __end_of_ADC_ThrottleLED_Lookup:
    44                           	opt stack 0
    45  0000                     _ADC_ThrottlePWM_Lookup_absconstaddr	set	384
    46                           
    47                           	psect	_ADC_ThrottlePWM_Lookup_const
    48  000180                     __p_ADC_ThrottlePWM_Lookup_const:
    49                           	opt stack 0
    50  000180                     _ADC_ThrottlePWM_Lookup:
    51                           	opt stack 0
    52  000180  00                 	db	0
    53  000181  12                 	db	18
    54  000182  24                 	db	36
    55  000183  36                 	db	54
    56  000184  48                 	db	72
    57  000185  5A                 	db	90
    58  000186  5A                 	db	90
    59  000187  6C                 	db	108
    60  000188  7E                 	db	126
    61  000189  90                 	db	144
    62  00018A  A2                 	db	162
    63  00018B  B4                 	db	180
    64  00018C  C6                 	db	198
    65  00018D  D8                 	db	216
    66  00018E  EA                 	db	234
    67  00018F  FF                 	db	255
    68  000190                     __end_of_ADC_ThrottlePWM_Lookup:
    69                           	opt stack 0
    70                           
    71                           	psect	nvCOMRAM
    72  000001                     __pnvCOMRAM:
    73                           	opt stack 0
    74  000001                     _ADC_Value:
    75                           	opt stack 0
    76  000001                     	ds	1
    77  000002                     _ClockSpeed:
    78                           	opt stack 0
    79  000002                     	ds	1
    80  0000                     _ANSEL	set	3966
    81  0000                     _ANSELH	set	3967
    82  0000                     _ANSELbits	set	3966
    83  0000                     _TRISAbits	set	3986
    84  0000                     _TRISBbits	set	3987
    85  0000                     _TRISD	set	3989
    86  0000                     _TRISE	set	3990
    87  0000                     _WPUBbits	set	3964
    88  0000                     _ADCON0	set	4034
    89  0000                     _ADCON0bits	set	4034
    90  0000                     _ADCON1	set	4033
    91  0000                     _ADCON2	set	4032
    92  0000                     _ADRESH	set	4036
    93  0000                     _CCP1CON	set	4029
    94  0000                     _CCPR1L	set	4030
    95  0000                     _OSCCON	set	4051
    96  0000                     _PR2	set	4043
    97  0000                     _T2CON	set	4042
    98  0000                     _INTCON2bits	set	4081
    99                           
   100                           ; #config settings
   101  0000                     
   102                           	psect	cinit
   103  00069E                     __pcinit:
   104                           	opt stack 0
   105  00069E                     start_initialization:
   106                           	opt stack 0
   107  00069E                     __initialization:
   108                           	opt stack 0
   109  00069E                     end_of_initialization:
   110                           	opt stack 0
   111  00069E                     __end_of__initialization:
   112                           	opt stack 0
   113  00069E  0E00               	movlw	low (__Lmediumconst shr (0+16))
   114  0006A0  6EF8               	movwf	tblptru,c
   115  0006A2  0100               	movlb	0
   116  0006A4  EF01  F003         	goto	_main	;jump to C main() function
   117                           tblptru	equ	0xFF8
   118                           
   119                           	psect	cstackCOMRAM
   120  000003                     __pcstackCOMRAM:
   121                           	opt stack 0
   122  000003                     Delay1KTCYx@unit:
   123                           	opt stack 0
   124                           
   125                           ; 1 bytes @ 0x0
   126  000003                     	ds	1
   127  000004                     tblptru	equ	0xFF8
   128                           
   129                           ; 0 bytes @ 0x1
   130 ;;
   131 ;;Main: autosize = 0, tempsize = 0, incstack = 0, save=0
   132 ;;
   133 ;; *************** function _main *****************
   134 ;; Defined at:
   135 ;;		line 86 in file "Throttle.c"
   136 ;; Parameters:    Size  Location     Type
   137 ;;		None
   138 ;; Auto vars:     Size  Location     Type
   139 ;;		None
   140 ;; Return value:  Size  Location     Type
   141 ;;		None               void
   142 ;; Registers used:
   143 ;;		wreg, status,2, status,0, tblptrl, tblptrh, tblptru, prodl, prodh, cstack
   144 ;; Tracked objects:
   145 ;;		On entry : 0/0
   146 ;;		On exit  : 0/0
   147 ;;		Unchanged: 0/0
   148 ;; Data sizes:     COMRAM   BANK0   BANK1   BANK2   BANK3   BANK4   BANK5
   149 ;;      Params:         0       0       0       0       0       0       0
   150 ;;      Locals:         0       0       0       0       0       0       0
   151 ;;      Temps:          0       0       0       0       0       0       0
   152 ;;      Totals:         0       0       0       0       0       0       0
   153 ;;Total ram usage:        0 bytes
   154 ;; Hardware stack levels required when called:    1
   155 ;; This function calls:
   156 ;;		_ADC_Convert
   157 ;;		_ADC_Init
   158 ;;		_Delay1KTCYx
   159 ;;		_PWM_Init
   160 ;; This function is called by:
   161 ;;		Startup code after reset
   162 ;; This function uses a non-reentrant model
   163 ;;
   164                           
   165                           	psect	text0
   166  000602                     __ptext0:
   167                           	opt stack 0
   168  000602                     _main:
   169                           	opt stack 30
   170                           
   171                           ;Throttle.c: 89: TRISD = 0b00000000;
   172                           
   173                           ;incstack = 0
   174  000602  0E00               	movlw	0
   175  000604  6E95               	movwf	3989,c	;volatile
   176                           
   177                           ;Throttle.c: 90: TRISAbits.TRISA0 = 1;
   178  000606  8092               	bsf	3986,0,c	;volatile
   179                           
   180                           ;Throttle.c: 91: TRISAbits.TRISA1 = 1;
   181  000608  8292               	bsf	3986,1,c	;volatile
   182                           
   183                           ;Throttle.c: 93: TRISE = 0b00000000;
   184  00060A  0E00               	movlw	0
   185  00060C  6E96               	movwf	3990,c	;volatile
   186                           
   187                           ;Throttle.c: 95: INTCON2bits.RBPU = 0;
   188  00060E  9EF1               	bcf	intcon2,7,c	;volatile
   189                           
   190                           ;Throttle.c: 96: WPUBbits.WPUB0 = 1;
   191  000610  807C               	bsf	3964,0,c	;volatile
   192                           
   193                           ;Throttle.c: 99: TRISBbits.TRISB0 = 1;
   194  000612  8093               	bsf	3987,0,c	;volatile
   195                           
   196                           ;Throttle.c: 102: ADC_Init();
   197  000614  EC2B  F003         	call	_ADC_Init	;wreg free
   198                           
   199                           ;Throttle.c: 105: PWM_Init();
   200  000618  EC41  F003         	call	_PWM_Init	;wreg free
   201                           
   202                           ;Throttle.c: 108: ClockSpeed = OSCCON;
   203  00061C  CFD3 F002          	movff	4051,_ClockSpeed	;volatile
   204  000620  D000               	goto	l697
   205  000622                     l697:
   206                           
   207                           ;Throttle.c: 112: {
   208                           ;Throttle.c: 114: ADC_Value = ADC_Convert();
   209  000622  EC48  F003         	call	_ADC_Convert	;wreg free
   210  000626  6E01               	movwf	_ADC_Value,c
   211                           
   212                           ;Throttle.c: 115: ADC_Value = ADC_Value >> 4;
   213  000628  3801               	swapf	_ADC_Value,w,c
   214  00062A  0B0F               	andlw	15
   215  00062C  6E01               	movwf	_ADC_Value,c
   216                           
   217                           ;Throttle.c: 118: CCPR1L = ADC_ThrottlePWM_Lookup[ADC_Value];
   218  00062E  5001               	movf	_ADC_Value,w,c
   219  000630  0D01               	mullw	1
   220  000632  0E80               	movlw	128
   221  000634  24F3               	addwf	prodl,w,c
   222  000636  6EF6               	movwf	tblptrl,c
   223  000638  0E01               	movlw	1
   224  00063A  20F4               	addwfc	prodh,w,c
   225  00063C  6EF7               	movwf	tblptrh,c
   226  00063E  6AF8               	clrf	tblptru,c
   227  000640  0E00               	movlw	0
   228  000642  22F8               	addwfc	tblptru,f,c
   229  000644  0008               	tblrd		*
   230  000646  CFF5 FFBE          	movff	tablat,4030	;volatile
   231                           
   232                           ;Throttle.c: 121: Delay1KTCYx(30);
   233  00064A  0E1E               	movlw	30
   234  00064C  EC38  F003         	call	_Delay1KTCYx
   235  000650  D7E8               	goto	l697
   236  000652  EF01  F000         	goto	start
   237  000656                     __end_of_main:
   238                           	opt stack 0
   239                           tblptru	equ	0xFF8
   240                           tblptrh	equ	0xFF7
   241                           tblptrl	equ	0xFF6
   242                           tablat	equ	0xFF5
   243                           prodh	equ	0xFF4
   244                           prodl	equ	0xFF3
   245                           intcon2	equ	0xFF1
   246                           
   247 ;; *************** function _PWM_Init *****************
   248 ;; Defined at:
   249 ;;		line 163 in file "Throttle.c"
   250 ;; Parameters:    Size  Location     Type
   251 ;;		None
   252 ;; Auto vars:     Size  Location     Type
   253 ;;		None
   254 ;; Return value:  Size  Location     Type
   255 ;;		None               void
   256 ;; Registers used:
   257 ;;		wreg, status,2
   258 ;; Tracked objects:
   259 ;;		On entry : 0/0
   260 ;;		On exit  : 0/0
   261 ;;		Unchanged: 0/0
   262 ;; Data sizes:     COMRAM   BANK0   BANK1   BANK2   BANK3   BANK4   BANK5
   263 ;;      Params:         0       0       0       0       0       0       0
   264 ;;      Locals:         0       0       0       0       0       0       0
   265 ;;      Temps:          0       0       0       0       0       0       0
   266 ;;      Totals:         0       0       0       0       0       0       0
   267 ;;Total ram usage:        0 bytes
   268 ;; Hardware stack levels used:    1
   269 ;; This function calls:
   270 ;;		Nothing
   271 ;; This function is called by:
   272 ;;		_main
   273 ;; This function uses a non-reentrant model
   274 ;;
   275                           
   276                           	psect	text1
   277  000682                     __ptext1:
   278                           	opt stack 0
   279  000682                     _PWM_Init:
   280                           	opt stack 30
   281                           
   282                           ;Throttle.c: 168: PR2 = 249;
   283                           
   284                           ;incstack = 0
   285  000682  0EF9               	movlw	249
   286  000684  6ECB               	movwf	4043,c	;volatile
   287                           
   288                           ;Throttle.c: 169: T2CON = 0b00000111;
   289  000686  0E07               	movlw	7
   290  000688  6ECA               	movwf	4042,c	;volatile
   291                           
   292                           ;Throttle.c: 174: CCP1CON = 0b01001100;
   293  00068A  0E4C               	movlw	76
   294  00068C  6EBD               	movwf	4029,c	;volatile
   295  00068E  0012               	return		;funcret
   296  000690                     __end_of_PWM_Init:
   297                           	opt stack 0
   298                           tblptru	equ	0xFF8
   299                           tblptrh	equ	0xFF7
   300                           tblptrl	equ	0xFF6
   301                           tablat	equ	0xFF5
   302                           prodh	equ	0xFF4
   303                           prodl	equ	0xFF3
   304                           intcon2	equ	0xFF1
   305                           
   306 ;; *************** function _Delay1KTCYx *****************
   307 ;; Defined at:
   308 ;;		line 8 in file "C:\Program Files (x86)\Microchip\xc8\v1.34\sources\pic18\d1ktcyx.c"
   309 ;; Parameters:    Size  Location     Type
   310 ;;  unit            1    wreg     unsigned char 
   311 ;; Auto vars:     Size  Location     Type
   312 ;;  unit            1    0[COMRAM] unsigned char 
   313 ;; Return value:  Size  Location     Type
   314 ;;		None               void
   315 ;; Registers used:
   316 ;;		wreg
   317 ;; Tracked objects:
   318 ;;		On entry : 0/0
   319 ;;		On exit  : 0/0
   320 ;;		Unchanged: 0/0
   321 ;; Data sizes:     COMRAM   BANK0   BANK1   BANK2   BANK3   BANK4   BANK5
   322 ;;      Params:         0       0       0       0       0       0       0
   323 ;;      Locals:         1       0       0       0       0       0       0
   324 ;;      Temps:          0       0       0       0       0       0       0
   325 ;;      Totals:         1       0       0       0       0       0       0
   326 ;;Total ram usage:        1 bytes
   327 ;; Hardware stack levels used:    1
   328 ;; This function calls:
   329 ;;		Nothing
   330 ;; This function is called by:
   331 ;;		_main
   332 ;; This function uses a non-reentrant model
   333 ;;
   334                           
   335                           	psect	text2
   336  000670                     __ptext2:
   337                           	opt stack 0
   338  000670                     _Delay1KTCYx:
   339                           	opt stack 30
   340                           
   341                           ;incstack = 0
   342                           ;Delay1KTCYx@unit stored from wreg
   343  000670  6E03               	movwf	Delay1KTCYx@unit,c
   344  000672  0EFA               	movlw	250
   345  000674                     u27:
   346  000674  F000               	nop	
   347  000676  2EE8               	decfsz	wreg,f,c
   348  000678  D7FD               	goto	u27
   349  00067A  2E03               	decfsz	Delay1KTCYx@unit,f,c
   350  00067C  D7FA               	goto	l675
   351  00067E  0012               	return	
   352  000680  0012               	return		;funcret
   353  000682                     __end_of_Delay1KTCYx:
   354                           	opt stack 0
   355                           tblptru	equ	0xFF8
   356                           tblptrh	equ	0xFF7
   357                           tblptrl	equ	0xFF6
   358                           tablat	equ	0xFF5
   359                           prodh	equ	0xFF4
   360                           prodl	equ	0xFF3
   361                           intcon2	equ	0xFF1
   362                           wreg	equ	0xFE8
   363                           
   364 ;; *************** function _ADC_Init *****************
   365 ;; Defined at:
   366 ;;		line 126 in file "Throttle.c"
   367 ;; Parameters:    Size  Location     Type
   368 ;;		None
   369 ;; Auto vars:     Size  Location     Type
   370 ;;		None
   371 ;; Return value:  Size  Location     Type
   372 ;;		None               void
   373 ;; Registers used:
   374 ;;		wreg, status,2
   375 ;; Tracked objects:
   376 ;;		On entry : 0/0
   377 ;;		On exit  : 0/0
   378 ;;		Unchanged: 0/0
   379 ;; Data sizes:     COMRAM   BANK0   BANK1   BANK2   BANK3   BANK4   BANK5
   380 ;;      Params:         0       0       0       0       0       0       0
   381 ;;      Locals:         0       0       0       0       0       0       0
   382 ;;      Temps:          0       0       0       0       0       0       0
   383 ;;      Totals:         0       0       0       0       0       0       0
   384 ;;Total ram usage:        0 bytes
   385 ;; Hardware stack levels used:    1
   386 ;; This function calls:
   387 ;;		Nothing
   388 ;; This function is called by:
   389 ;;		_main
   390 ;; This function uses a non-reentrant model
   391 ;;
   392                           
   393                           	psect	text3
   394  000656                     __ptext3:
   395                           	opt stack 0
   396  000656                     _ADC_Init:
   397                           	opt stack 30
   398                           
   399                           ;Throttle.c: 131: ANSEL = 0;
   400                           
   401                           ;incstack = 0
   402  000656  0E00               	movlw	0
   403  000658  6E7E               	movwf	3966,c	;volatile
   404                           
   405                           ;Throttle.c: 132: ANSELH = 0;
   406  00065A  0E00               	movlw	0
   407  00065C  6E7F               	movwf	3967,c	;volatile
   408                           
   409                           ;Throttle.c: 133: ANSELbits.ANS0 = 1;
   410  00065E  807E               	bsf	3966,0,c	;volatile
   411                           
   412                           ;Throttle.c: 134: ANSELbits.ANS1 = 1;
   413  000660  827E               	bsf	3966,1,c	;volatile
   414                           
   415                           ;Throttle.c: 138: ADCON1 = 0;
   416  000662  0E00               	movlw	0
   417  000664  6EC1               	movwf	4033,c	;volatile
   418                           
   419                           ;Throttle.c: 156: ADCON2 = 0b00111000;
   420  000666  0E38               	movlw	56
   421  000668  6EC0               	movwf	4032,c	;volatile
   422                           
   423                           ;Throttle.c: 159: ADCON0 = 0b00000101;
   424  00066A  0E05               	movlw	5
   425  00066C  6EC2               	movwf	4034,c	;volatile
   426  00066E  0012               	return		;funcret
   427  000670                     __end_of_ADC_Init:
   428                           	opt stack 0
   429                           tblptru	equ	0xFF8
   430                           tblptrh	equ	0xFF7
   431                           tblptrl	equ	0xFF6
   432                           tablat	equ	0xFF5
   433                           prodh	equ	0xFF4
   434                           prodl	equ	0xFF3
   435                           intcon2	equ	0xFF1
   436                           wreg	equ	0xFE8
   437                           
   438 ;; *************** function _ADC_Convert *****************
   439 ;; Defined at:
   440 ;;		line 181 in file "Throttle.c"
   441 ;; Parameters:    Size  Location     Type
   442 ;;		None
   443 ;; Auto vars:     Size  Location     Type
   444 ;;		None
   445 ;; Return value:  Size  Location     Type
   446 ;;                  1    wreg      unsigned char 
   447 ;; Registers used:
   448 ;;		wreg, status,2
   449 ;; Tracked objects:
   450 ;;		On entry : 0/0
   451 ;;		On exit  : 0/0
   452 ;;		Unchanged: 0/0
   453 ;; Data sizes:     COMRAM   BANK0   BANK1   BANK2   BANK3   BANK4   BANK5
   454 ;;      Params:         0       0       0       0       0       0       0
   455 ;;      Locals:         0       0       0       0       0       0       0
   456 ;;      Temps:          0       0       0       0       0       0       0
   457 ;;      Totals:         0       0       0       0       0       0       0
   458 ;;Total ram usage:        0 bytes
   459 ;; Hardware stack levels used:    1
   460 ;; This function calls:
   461 ;;		Nothing
   462 ;; This function is called by:
   463 ;;		_main
   464 ;; This function uses a non-reentrant model
   465 ;;
   466                           
   467                           	psect	text4
   468  000690                     __ptext4:
   469                           	opt stack 0
   470  000690                     _ADC_Convert:
   471                           	opt stack 30
   472                           
   473                           ;Throttle.c: 183: ADCON0bits.GO_DONE = 1;
   474                           
   475                           ;incstack = 0
   476  000690  82C2               	bsf	4034,1,c	;volatile
   477                           
   478                           ;Throttle.c: 184: while (ADCON0bits.GO_DONE == 1);
   479  000692  D000               	goto	l69
   480  000694                     l69:
   481  000694  B2C2               	btfsc	4034,1,c	;volatile
   482  000696  D7FE               	goto	l69
   483                           
   484                           ;Throttle.c: 185: return ADRESH;
   485  000698  50C4               	movf	4036,w,c	;volatile
   486  00069A  0012               	return	
   487  00069C  0012               	return		;funcret
   488  00069E                     __end_of_ADC_Convert:
   489                           	opt stack 0
   490                           tblptru	equ	0xFF8
   491                           tblptrh	equ	0xFF7
   492                           tblptrl	equ	0xFF6
   493                           tablat	equ	0xFF5
   494                           prodh	equ	0xFF4
   495                           prodl	equ	0xFF3
   496                           intcon2	equ	0xFF1
   497                           wreg	equ	0xFE8
   498                           
   499                           	psect	smallconst
   500  000600                     __psmallconst:
   501                           	opt stack 0
   502  000600  00                 	db	0
   503  000601  00                 	db	0	; dummy byte at the end
   504  0000                     tblptru	equ	0xFF8
   505                           tblptrh	equ	0xFF7
   506                           tblptrl	equ	0xFF6
   507                           tablat	equ	0xFF5
   508                           prodh	equ	0xFF4
   509                           prodl	equ	0xFF3
   510                           intcon2	equ	0xFF1
   511                           wreg	equ	0xFE8
   512                           tblptru	equ	0xFF8
   513                           tblptrh	equ	0xFF7
   514                           tblptrl	equ	0xFF6
   515                           tablat	equ	0xFF5
   516                           prodh	equ	0xFF4
   517                           prodl	equ	0xFF3
   518                           intcon2	equ	0xFF1
   519                           wreg	equ	0xFE8
   520                           
   521                           	psect	rparam
   522  0000                     tblptru	equ	0xFF8
   523                           tblptrh	equ	0xFF7
   524                           tblptrl	equ	0xFF6
   525                           tablat	equ	0xFF5
   526                           prodh	equ	0xFF4
   527                           prodl	equ	0xFF3
   528                           intcon2	equ	0xFF1
   529                           wreg	equ	0xFE8


Data Sizes:
    Strings     0
    Constant    0
    Data        0
    BSS         0
    Persistent  2
    Stack       0

Auto Spaces:
    Space          Size  Autos    Used
    COMRAM           95      1       3
    BANK0           160      0       0
    BANK1           256      0       0
    BANK2           256      0       0
    BANK3           256      0       0
    BANK4           256      0       0
    BANK5           239      0       0

Pointer List with Targets:

    None.

Critical Paths under _main in COMRAM

    _main->_Delay1KTCYx

Critical Paths under _main in BANK0

    None.

Critical Paths under _main in BANK1

    None.

Critical Paths under _main in BANK2

    None.

Critical Paths under _main in BANK3

    None.

Critical Paths under _main in BANK4

    None.

Critical Paths under _main in BANK5

    None.

Call Graph Tables:

 ---------------------------------------------------------------------------------
 (Depth) Function   	        Calls       Base Space   Used Autos Params    Refs
 ---------------------------------------------------------------------------------
 (0) _main                                                 0     0      0      15
                        _ADC_Convert
                           _ADC_Init
                        _Delay1KTCYx
                           _PWM_Init
 ---------------------------------------------------------------------------------
 (1) _PWM_Init                                             0     0      0       0
 ---------------------------------------------------------------------------------
 (1) _Delay1KTCYx                                          1     1      0      15
                                              0 COMRAM     1     1      0
 ---------------------------------------------------------------------------------
 (1) _ADC_Init                                             0     0      0       0
 ---------------------------------------------------------------------------------
 (1) _ADC_Convert                                          0     0      0       0
 ---------------------------------------------------------------------------------
 Estimated maximum stack depth 1
 ---------------------------------------------------------------------------------

 Call Graph Graphs:

 _main (ROOT)
   _ADC_Convert
   _ADC_Init
   _Delay1KTCYx
   _PWM_Init

 Address spaces:
Name               Size   Autos  Total    Cost      Usage
BITCOMRAM           5F      0       0       0        0.0%
EEDATA             100      0       0       0        0.0%
NULL                 0      0       0       0        0.0%
CODE                 0      0       0       0        0.0%
COMRAM              5F      1       3       1        3.2%
STACK                0      0       0       2        0.0%
BITBANK0            A0      0       0       3        0.0%
BANK0               A0      0       0       4        0.0%
BITBANK1           100      0       0       5        0.0%
BANK1              100      0       0       6        0.0%
BITBANK2           100      0       0       7        0.0%
BANK2              100      0       0       8        0.0%
BITBANK3           100      0       0       9        0.0%
BANK3              100      0       0      10        0.0%
BITBANK4           100      0       0      11        0.0%
BANK4              100      0       0      12        0.0%
BANK5               EF      0       0      13        0.0%
ABS                  0      0       3      14        0.0%
BITBANK5            EF      0       0      15        0.0%
BIGRAM             5EE      0       0      16        0.0%
DATA                 0      0       3      17        0.0%
BITSFR_5             0      0       0      40        0.0%
SFR_5                0      0       0      40        0.0%
BITSFR_4             0      0       0      40        0.0%
SFR_4                0      0       0      40        0.0%
BITSFR_3             0      0       0      40        0.0%
SFR_3                0      0       0      40        0.0%
BITSFR_2             0      0       0      40        0.0%
SFR_2                0      0       0      40        0.0%
BITSFR_1             0      0       0      40        0.0%
SFR_1                0      0       0      40        0.0%
BITSFR               0      0       0      40        0.0%
SFR                  0      0       0      40        0.0%


Microchip Technology PIC18 Macro Assembler V1.34 build -361300703 
Symbol Table                                                                                   Thu Apr 16 09:02:52 2015

                                 l69 0694                                   u27 0674  
                       __CFG_CP0$OFF 000000                         __CFG_CP1$OFF 000000  
                       __CFG_CP2$OFF 000000                         __CFG_CP3$OFF 000000  
             _ADC_ThrottleLED_Lookup 0180                                  l675 0672  
                                l697 0622                         __CFG_CPB$OFF 000000  
                                _PR2 000FCB                         __CFG_CPD$OFF 000000  
                       __CFG_BORV$30 000000                                  wreg 000FE8  
    __p_ADC_ThrottleLED_Lookup_const 0180                         __CFG_LVP$OFF 000000  
               __size_of_ADC_Convert 000E                                 _main 0602  
                   __end_of_ADC_Init 0670                                 prodh 000FF4  
                               prodl 000FF3                                 start 0002  
                      __CFG_IESO$OFF 000000                         ___param_bank 000010  
                         _ClockSpeed 0002                          _Delay1KTCYx 0670  
                              ?_main 0003                                _ANSEL 000F7E  
                              _T2CON 000FCA                                _TRISD 000F95  
                              _TRISE 000F96                        __CFG_PWRT$OFF 000000  
                      __CFG_WRT0$OFF 000000                        __CFG_WRT1$OFF 000000  
                      __CFG_WRT2$OFF 000000                        __CFG_WRT3$OFF 000000  
                     __CFG_EBTR0$OFF 000000                       __CFG_FCMEN$OFF 000000  
                     __CFG_EBTR1$OFF 000000                       __CFG_EBTR2$OFF 000000  
                     __CFG_EBTR3$OFF 000000                        __CFG_WRTB$OFF 000000  
                      __CFG_WRTC$OFF 000000                        __CFG_WRTD$OFF 000000  
                     __CFG_EBTRB$OFF 000000                     __end_of_PWM_Init 0690  
                              tablat 000FF5                       __CFG_PBADEN$ON 000000  
                    __initialization 069E                         __end_of_main 0656  
             _ADC_ThrottlePWM_Lookup 0180                               ??_main 0004  
                      __activetblptr 000002                               _ADCON0 000FC2  
                             _ADCON1 000FC1                               _ADCON2 000FC0  
                             _ADRESH 000FC4                               _CCPR1L 000FBE  
                             _ANSELH 000F7F                       __CFG_WDTEN$OFF 000000  
                             _OSCCON 000FD3                       __CFG_XINST$OFF 000000  
                     __CFG_STVREN$ON 000000                            ?_ADC_Init 0003  
                       __mediumconst 0000                               tblptrh 000FF7  
                             tblptrl 000FF6                               tblptru 000FF8  
                         __accesstop 0060              __end_of__initialization 069E  
                      ___rparam_used 000001                       __pcstackCOMRAM 0003  
                          ?_PWM_Init 0003                           ??_ADC_Init 0003  
    __p_ADC_ThrottlePWM_Lookup_const 0180                      __CFG_LPT1OSC$ON 000000  
                         __pnvCOMRAM 0001       __end_of_ADC_ThrottleLED_Lookup 0190  
                            _CCP1CON 000FBD                         ?_Delay1KTCYx 0003  
                         ??_PWM_Init 0003                        ??_ADC_Convert 0003  
_ADC_ThrottlePWM_Lookup_absconstaddr 000180                            _ADC_Value 0001  
                            __Hparam 0000                              __Lparam 0000  
                       __psmallconst 0600                              __pcinit 069E  
                          _ANSELbits 000F7E                              __ramtop 0600  
                            __ptext0 0602                              __ptext1 0682  
                            __ptext2 0670                              __ptext3 0656  
                            __ptext4 0690                 end_of_initialization 069E  
                __end_of_ADC_Convert 069E                        __Lmediumconst 0000  
     __end_of_ADC_ThrottlePWM_Lookup 0190                            _TRISAbits 000F92  
                          _TRISBbits 000F93                    __size_of_ADC_Init 001A  
               __size_of_Delay1KTCYx 0012                    __size_of_PWM_Init 000E  
                start_initialization 069E                          _ADC_Convert 0690  
                    Delay1KTCYx@unit 0003                    __CFG_CCP2MX$PORTC 000000  
                        __smallconst 0600                             _ADC_Init 0656  
                   __CFG_WDTPS$32768 000000                           _ADCON0bits 000FC2  
                           _PWM_Init 0682                             _WPUBbits 000F7C  
                        _INTCON2bits 000FF1                             __Hrparam 0000  
                           __Lrparam 0000                   __CFG_BOREN$SBORDIS 000000  
                       ?_ADC_Convert 0003                        __size_of_main 0054  
                      ??_Delay1KTCYx 0003                  __end_of_Delay1KTCYx 0682  
                  __CFG_FOSC$INTIO67 000000  _ADC_ThrottleLED_Lookup_absconstaddr 000180  
