

Microchip Technology PIC18 LITE Macro Assembler V1.34 build -361300703 
                                                                                               Mon Apr 20 20:03:09 2015

Microchip Technology Omniscient Code Generator (Lite mode) build 201502162209
     1                           	processor	18F45K20
     2                           	fnconf	rparam,??,?,0
     3                           	opt	pw 120
     4                           	opt	lm
     5                           	psect	smallconst,global,reloc=2,class=SMALLCONST,delta=1
     6                           	psect	cinit,global,reloc=2,class=CODE,delta=1
     7                           	psect	bssCOMRAM,global,class=COMRAM,space=1,delta=1
     8                           	psect	cstackCOMRAM,global,class=COMRAM,space=1,delta=1
     9                           	psect	text0,global,reloc=2,class=CODE,delta=1
    10                           	psect	text1,global,reloc=2,class=CODE,delta=1
    11                           	psect	text2,global,reloc=2,class=CODE,delta=1
    12                           	psect	text3,global,reloc=2,class=CODE,delta=1
    13                           	psect	text4,global,reloc=2,class=CODE,delta=1
    14                           	psect	text5,global,reloc=2,class=CODE,delta=1
    15                           	psect	text6,global,reloc=2,class=CODE,delta=1
    16                           	psect	text7,global,reloc=2,class=CODE,delta=1
    17                           	psect	text8,global,reloc=2,class=CODE,delta=1
    18                           	psect	text9,global,reloc=2,class=CODE,delta=1
    19                           	psect	text10,global,reloc=2,class=CODE,delta=1
    20                           	psect	text11,global,reloc=2,class=CODE,delta=1
    21                           	psect	text12,global,reloc=2,class=CODE,delta=1
    22                           	psect	text13,global,reloc=2,class=CODE,delta=1
    23                           	psect	text14,global,reloc=2,class=CODE,delta=1
    24                           	psect	text15,global,reloc=2,class=CODE,delta=1
    25                           	psect	text16,global,reloc=2,class=CODE,delta=1
    26                           	psect	text17,global,reloc=2,class=CODE,delta=1
    27                           	psect	intsave_regs,global,class=BIGRAM,space=1,delta=1
    28                           	psect	rparam,global,class=COMRAM,space=1,delta=1
    29  0000                     _LATCbits	set	3979
    30  0000                     _LATD	set	3980
    31  0000                     _LATDbits	set	3980
    32  0000                     _PORTC	set	3970
    33  0000                     _TRISC	set	3988
    34  0000                     _TRISCbits	set	3988
    35  0000                     _TRISD	set	3989
    36                           
    37                           	psect	smallconst
    38  000600                     __psmallconst:
    39                           	opt stack 0
    40  000600  00                 	db	0
    41  000601                     STR_2:
    42  000601  4C                 	db	76	;'L'
    43  000602  43                 	db	67	;'C'
    44  000603  44                 	db	68	;'D'
    45  000604  20                 	db	32
    46  000605  4C                 	db	76	;'L'
    47  000606  69                 	db	105	;'i'
    48  000607  6E                 	db	110	;'n'
    49  000608  65                 	db	101	;'e'
    50  000609  20                 	db	32
    51  00060A  32                 	db	50	;'2'
    52  00060B  20                 	db	32
    53  00060C  00                 	db	0
    54  00060D                     STR_1:
    55  00060D  54                 	db	84	;'T'
    56  00060E  65                 	db	101	;'e'
    57  00060F  73                 	db	115	;'s'
    58  000610  74                 	db	116	;'t'
    59  000611  69                 	db	105	;'i'
    60  000612  6E                 	db	110	;'n'
    61  000613  67                 	db	103	;'g'
    62  000614  20                 	db	32
    63  000615  00                 	db	0
    64                           
    65                           ; #config settings
    66  000616  00                 	db	0	; dummy byte at the end
    67  0000                     
    68                           	psect	cinit
    69  000B94                     __pcinit:
    70                           	opt stack 0
    71  000B94                     start_initialization:
    72                           	opt stack 0
    73  000B94                     __initialization:
    74                           	opt stack 0
    75                           
    76                           ; Clear objects allocated to COMRAM (1 bytes)
    77  000B94  6A17               	clrf	__pbssCOMRAM& (0+255),c
    78  000B96                     end_of_initialization:
    79                           	opt stack 0
    80  000B96                     __end_of__initialization:
    81                           	opt stack 0
    82  000B96  0E00               	movlw	low (__Lmediumconst shr (0+16))
    83  000B98  6EF8               	movwf	tblptru,c
    84  000B9A  0100               	movlb	0
    85  000B9C  EF0C  F003         	goto	_main	;jump to C main() function
    86                           tblptru	equ	0xFF8
    87                           
    88                           	psect	bssCOMRAM
    89  000017                     __pbssCOMRAM:
    90                           	opt stack 0
    91  000017                     _counter:
    92                           	opt stack 0
    93  000017                     	ds	1
    94                           tblptru	equ	0xFF8
    95                           
    96                           	psect	cstackCOMRAM
    97  000001                     __pcstackCOMRAM:
    98                           	opt stack 0
    99  000001                     ??_Delay10KTCYx:
   100  000001                     ?___lwdiv:
   101                           	opt stack 0
   102  000001                     ?___lwmod:
   103                           	opt stack 0
   104  000001                     Delay100TCYx@unit:
   105                           	opt stack 0
   106  000001                     Delay1KTCYx@unit:
   107                           	opt stack 0
   108  000001                     Delay1TCYx@unit:
   109                           	opt stack 0
   110  000001                     ___lwdiv@dividend:
   111                           	opt stack 0
   112  000001                     ___lwmod@dividend:
   113                           	opt stack 0
   114                           
   115                           ; 2 bytes @ 0x0
   116  000001                     	ds	1
   117  000002                     ??_SetLCDCGRamAddr:
   118  000002                     ??_SetLCDDDRamAddr:
   119  000002                     WriteCmdLCD@cmd:
   120                           	opt stack 0
   121  000002                     WriteDataLCD@data:
   122                           	opt stack 0
   123  000002                     Delay10KTCYx@unit:
   124                           	opt stack 0
   125                           
   126                           ; 1 bytes @ 0x1
   127  000002                     	ds	1
   128  000003                     putLCD@buffer:
   129                           	opt stack 0
   130  000003                     ___lwdiv@divisor:
   131                           	opt stack 0
   132  000003                     ___lwmod@divisor:
   133                           	opt stack 0
   134                           
   135                           ; 2 bytes @ 0x2
   136  000003                     	ds	2
   137  000005                     SetLCDDDRamAddr@DDaddr:
   138                           	opt stack 0
   139  000005                     SetLCDCGRamAddr@CGaddr:
   140                           	opt stack 0
   141  000005                     ___lwmod@counter:
   142                           	opt stack 0
   143  000005                     ___lwdiv@quotient:
   144                           	opt stack 0
   145                           
   146                           ; 2 bytes @ 0x4
   147  000005                     	ds	1
   148  000006                     OpenLCD@lcdtype:
   149                           	opt stack 0
   150                           
   151                           ; 1 bytes @ 0x5
   152  000006                     	ds	1
   153  000007                     ___lwdiv@counter:
   154                           	opt stack 0
   155                           
   156                           ; 1 bytes @ 0x6
   157  000007                     	ds	1
   158  000008                     utoa@buf:
   159                           	opt stack 0
   160                           
   161                           ; 2 bytes @ 0x7
   162  000008                     	ds	2
   163  00000A                     utoa@val:
   164                           	opt stack 0
   165                           
   166                           ; 2 bytes @ 0x9
   167  00000A                     	ds	2
   168  00000C                     utoa@base:
   169                           	opt stack 0
   170                           
   171                           ; 2 bytes @ 0xB
   172  00000C                     	ds	2
   173  00000E                     utoa@v:
   174                           	opt stack 0
   175                           
   176                           ; 2 bytes @ 0xD
   177  00000E                     	ds	2
   178  000010                     utoa@c:
   179                           	opt stack 0
   180                           
   181                           ; 1 bytes @ 0xF
   182  000010                     	ds	1
   183  000011                     putIntLCD@n:
   184                           	opt stack 0
   185                           
   186                           ; 2 bytes @ 0x10
   187  000011                     	ds	2
   188  000013                     putIntLCD@result:
   189                           	opt stack 0
   190                           
   191                           ; 4 bytes @ 0x12
   192  000013                     	ds	4
   193  000017                     tblptru	equ	0xFF8
   194                           
   195                           ; 0 bytes @ 0x16
   196 ;;
   197 ;;Main: autosize = 0, tempsize = 0, incstack = 0, save=0
   198 ;;
   199 ;; *************** function _main *****************
   200 ;; Defined at:
   201 ;;		line 118 in file "main.c"
   202 ;; Parameters:    Size  Location     Type
   203 ;;		None
   204 ;; Auto vars:     Size  Location     Type
   205 ;;		None
   206 ;; Return value:  Size  Location     Type
   207 ;;		None               void
   208 ;; Registers used:
   209 ;;		wreg, fsr0l, fsr0h, fsr2l, fsr2h, status,2, status,0, tblptrl, tblptrh, tblptru, cstack
   210 ;; Tracked objects:
   211 ;;		On entry : 0/0
   212 ;;		On exit  : 0/0
   213 ;;		Unchanged: 0/0
   214 ;; Data sizes:     COMRAM   BANK0   BANK1   BANK2   BANK3   BANK4   BANK5
   215 ;;      Params:         0       0       0       0       0       0       0
   216 ;;      Locals:         0       0       0       0       0       0       0
   217 ;;      Temps:          0       0       0       0       0       0       0
   218 ;;      Totals:         0       0       0       0       0       0       0
   219 ;;Total ram usage:        0 bytes
   220 ;; Hardware stack levels required when called:    5
   221 ;; This function calls:
   222 ;;		_Delay1KTCYx
   223 ;;		_InitLCD
   224 ;;		_SetLCDCGRamAddr
   225 ;;		_SetLCDDDRamAddr
   226 ;;		_WriteCmdLCD
   227 ;;		_WriteDataLCD
   228 ;;		_putIntLCD
   229 ;;		_putLCD
   230 ;; This function is called by:
   231 ;;		Startup code after reset
   232 ;; This function uses a non-reentrant model
   233 ;;
   234                           
   235                           	psect	text0
   236  000618                     __ptext0:
   237                           	opt stack 0
   238  000618                     _main:
   239                           	opt stack 26
   240                           
   241                           ;main.c: 121: TRISD = 0b00000000;
   242                           
   243                           ;incstack = 0
   244  000618  0E00               	movlw	0
   245  00061A  6E95               	movwf	3989,c	;volatile
   246                           
   247                           ;main.c: 122: LATD = 0;
   248  00061C  0E00               	movlw	0
   249  00061E  6E8C               	movwf	3980,c	;volatile
   250                           
   251                           ;main.c: 124: InitLCD();
   252  000620  EC9C  F005         	call	_InitLCD	;wreg free
   253                           
   254                           ;main.c: 126: SetLCDCGRamAddr(0x00);
   255  000624  0E00               	movlw	0
   256  000626  ECAC  F004         	call	_SetLCDCGRamAddr
   257                           
   258                           ;main.c: 127: WriteDataLCD(0b00000);
   259  00062A  0E00               	movlw	0
   260  00062C  EC29  F005         	call	_WriteDataLCD
   261                           
   262                           ;main.c: 128: WriteDataLCD(0b01111);
   263  000630  0E0F               	movlw	15
   264  000632  EC29  F005         	call	_WriteDataLCD
   265                           
   266                           ;main.c: 129: WriteDataLCD(0b10001);
   267  000636  0E11               	movlw	17
   268  000638  EC29  F005         	call	_WriteDataLCD
   269                           
   270                           ;main.c: 130: WriteDataLCD(0b10001);
   271  00063C  0E11               	movlw	17
   272  00063E  EC29  F005         	call	_WriteDataLCD
   273                           
   274                           ;main.c: 131: WriteDataLCD(0b10001);
   275  000642  0E11               	movlw	17
   276  000644  EC29  F005         	call	_WriteDataLCD
   277                           
   278                           ;main.c: 132: WriteDataLCD(0b01111);
   279  000648  0E0F               	movlw	15
   280  00064A  EC29  F005         	call	_WriteDataLCD
   281                           
   282                           ;main.c: 133: WriteDataLCD(0b00111);
   283  00064E  0E07               	movlw	7
   284  000650  EC29  F005         	call	_WriteDataLCD
   285                           
   286                           ;main.c: 134: WriteDataLCD(0b00111);
   287  000654  0E07               	movlw	7
   288  000656  EC29  F005         	call	_WriteDataLCD
   289                           
   290                           ;main.c: 137: SetLCDCGRamAddr(0x08);
   291  00065A  0E08               	movlw	8
   292  00065C  ECAC  F004         	call	_SetLCDCGRamAddr
   293                           
   294                           ;main.c: 138: WriteDataLCD(0b11111);
   295  000660  0E1F               	movlw	31
   296  000662  EC29  F005         	call	_WriteDataLCD
   297                           
   298                           ;main.c: 139: WriteDataLCD(0b10001);
   299  000666  0E11               	movlw	17
   300  000668  EC29  F005         	call	_WriteDataLCD
   301                           
   302                           ;main.c: 140: WriteDataLCD(0b10001);
   303  00066C  0E11               	movlw	17
   304  00066E  EC29  F005         	call	_WriteDataLCD
   305                           
   306                           ;main.c: 141: WriteDataLCD(0b10101);
   307  000672  0E15               	movlw	21
   308  000674  EC29  F005         	call	_WriteDataLCD
   309                           
   310                           ;main.c: 142: WriteDataLCD(0b10001);
   311  000678  0E11               	movlw	17
   312  00067A  EC29  F005         	call	_WriteDataLCD
   313                           
   314                           ;main.c: 143: WriteDataLCD(0b10001);
   315  00067E  0E11               	movlw	17
   316  000680  EC29  F005         	call	_WriteDataLCD
   317                           
   318                           ;main.c: 144: WriteDataLCD(0b10001);
   319  000684  0E11               	movlw	17
   320  000686  EC29  F005         	call	_WriteDataLCD
   321                           
   322                           ;main.c: 145: WriteDataLCD(0b11111);
   323  00068A  0E1F               	movlw	31
   324  00068C  EC29  F005         	call	_WriteDataLCD
   325                           
   326                           ;main.c: 147: WriteCmdLCD(0b00000010);
   327  000690  0E02               	movlw	2
   328  000692  EC49  F005         	call	_WriteCmdLCD
   329                           
   330                           ;main.c: 148: putLCD("Testing ");
   331  000696  0E0D               	movlw	low STR_1
   332  000698  6E03               	movwf	putLCD@buffer,c
   333  00069A  0E06               	movlw	high STR_1
   334  00069C  6E04               	movwf	putLCD@buffer+1,c
   335  00069E  EC4E  F004         	call	_putLCD	;wreg free
   336                           
   337                           ;main.c: 150: putIntLCD(3455);
   338  0006A2  0E0D               	movlw	13
   339  0006A4  6E12               	movwf	putIntLCD@n+1,c
   340  0006A6  0E7F               	movlw	127
   341  0006A8  6E11               	movwf	putIntLCD@n,c
   342  0006AA  EC87  F005         	call	_putIntLCD	;wreg free
   343                           
   344                           ;main.c: 152: SetLCDDDRamAddr(0x040);
   345  0006AE  0E40               	movlw	64
   346  0006B0  ECD9  F004         	call	_SetLCDDDRamAddr
   347                           
   348                           ;main.c: 153: putLCD("LCD Line 2 ");
   349  0006B4  0E01               	movlw	low STR_2
   350  0006B6  6E03               	movwf	putLCD@buffer,c
   351  0006B8  0E06               	movlw	high STR_2
   352  0006BA  6E04               	movwf	putLCD@buffer+1,c
   353  0006BC  EC4E  F004         	call	_putLCD	;wreg free
   354                           
   355                           ;main.c: 154: WriteDataLCD(0);
   356  0006C0  0E00               	movlw	0
   357  0006C2  EC29  F005         	call	_WriteDataLCD
   358                           
   359                           ;main.c: 155: WriteDataLCD(1);
   360  0006C6  0E01               	movlw	1
   361  0006C8  EC29  F005         	call	_WriteDataLCD
   362                           
   363                           ;main.c: 156: WriteDataLCD(2);
   364  0006CC  0E02               	movlw	2
   365  0006CE  EC29  F005         	call	_WriteDataLCD
   366                           
   367                           ;main.c: 157: WriteDataLCD(3);
   368  0006D2  0E03               	movlw	3
   369  0006D4  EC29  F005         	call	_WriteDataLCD
   370                           
   371                           ;main.c: 160: counter = 100;
   372  0006D8  0E64               	movlw	100
   373  0006DA  6E17               	movwf	_counter,c
   374  0006DC  D000               	goto	l1264
   375  0006DE                     l1264:
   376                           
   377                           ;main.c: 163: {
   378                           ;main.c: 164: LATDbits.LD0 = 1;
   379  0006DE  808C               	bsf	3980,0,c	;volatile
   380                           
   381                           ;main.c: 165: Delay1KTCYx(10);
   382  0006E0  0E0A               	movlw	10
   383  0006E2  ECC1  F005         	call	_Delay1KTCYx
   384                           
   385                           ;main.c: 167: LATDbits.LD1 = 1;
   386  0006E6  828C               	bsf	3980,1,c	;volatile
   387                           
   388                           ;main.c: 168: Delay1KTCYx(10);
   389  0006E8  0E0A               	movlw	10
   390  0006EA  ECC1  F005         	call	_Delay1KTCYx
   391                           
   392                           ;main.c: 170: LATDbits.LD2 = 1;
   393  0006EE  848C               	bsf	3980,2,c	;volatile
   394                           
   395                           ;main.c: 171: Delay1KTCYx(10);
   396  0006F0  0E0A               	movlw	10
   397  0006F2  ECC1  F005         	call	_Delay1KTCYx
   398                           
   399                           ;main.c: 173: LATDbits.LD3 = 1;
   400  0006F6  868C               	bsf	3980,3,c	;volatile
   401                           
   402                           ;main.c: 174: Delay1KTCYx(10);
   403  0006F8  0E0A               	movlw	10
   404  0006FA  ECC1  F005         	call	_Delay1KTCYx
   405                           
   406                           ;main.c: 176: LATDbits.LD4 = 1;
   407  0006FE  888C               	bsf	3980,4,c	;volatile
   408                           
   409                           ;main.c: 177: Delay1KTCYx(10);
   410  000700  0E0A               	movlw	10
   411  000702  ECC1  F005         	call	_Delay1KTCYx
   412                           
   413                           ;main.c: 179: LATDbits.LD5 = 1;
   414  000706  8A8C               	bsf	3980,5,c	;volatile
   415                           
   416                           ;main.c: 180: Delay1KTCYx(10);
   417  000708  0E0A               	movlw	10
   418  00070A  ECC1  F005         	call	_Delay1KTCYx
   419                           
   420                           ;main.c: 182: LATDbits.LD6 = 1;
   421  00070E  8C8C               	bsf	3980,6,c	;volatile
   422                           
   423                           ;main.c: 183: Delay1KTCYx(10);
   424  000710  0E0A               	movlw	10
   425  000712  ECC1  F005         	call	_Delay1KTCYx
   426                           
   427                           ;main.c: 185: LATDbits.LD7 = 1;
   428  000716  8E8C               	bsf	3980,7,c	;volatile
   429                           
   430                           ;main.c: 186: Delay1KTCYx(10);
   431  000718  0E0A               	movlw	10
   432  00071A  ECC1  F005         	call	_Delay1KTCYx
   433                           
   434                           ;main.c: 188: LATD = 0;
   435  00071E  0E00               	movlw	0
   436  000720  6E8C               	movwf	3980,c	;volatile
   437                           
   438                           ;main.c: 189: Delay1KTCYx(10);
   439  000722  0E0A               	movlw	10
   440  000724  ECC1  F005         	call	_Delay1KTCYx
   441                           
   442                           ;main.c: 192: counter = counter + 1;
   443  000728  2817               	incf	_counter,w,c
   444  00072A  6E17               	movwf	_counter,c
   445                           
   446                           ;main.c: 193: SetLCDDDRamAddr(0x044);
   447  00072C  0E44               	movlw	68
   448  00072E  ECD9  F004         	call	_SetLCDDDRamAddr
   449                           
   450                           ;main.c: 194: putIntLCD(counter);
   451  000732  C017  F011         	movff	_counter,putIntLCD@n
   452  000736  6A12               	clrf	putIntLCD@n+1,c
   453  000738  EC87  F005         	call	_putIntLCD	;wreg free
   454  00073C  D7D0               	goto	l1264
   455  00073E  EF00  F000         	goto	start
   456  000742                     __end_of_main:
   457                           	opt stack 0
   458                           tblptru	equ	0xFF8
   459                           
   460 ;; *************** function _putIntLCD *****************
   461 ;; Defined at:
   462 ;;		line 381 in file "main.c"
   463 ;; Parameters:    Size  Location     Type
   464 ;;  n               2   16[COMRAM] short 
   465 ;; Auto vars:     Size  Location     Type
   466 ;;  result          4   18[COMRAM] unsigned char [4]
   467 ;; Return value:  Size  Location     Type
   468 ;;		None               void
   469 ;; Registers used:
   470 ;;		wreg, fsr0l, fsr0h, fsr2l, fsr2h, status,2, status,0, tblptrl, tblptrh, tblptru, cstack
   471 ;; Tracked objects:
   472 ;;		On entry : 0/0
   473 ;;		On exit  : 0/0
   474 ;;		Unchanged: 0/0
   475 ;; Data sizes:     COMRAM   BANK0   BANK1   BANK2   BANK3   BANK4   BANK5
   476 ;;      Params:         2       0       0       0       0       0       0
   477 ;;      Locals:         4       0       0       0       0       0       0
   478 ;;      Temps:          0       0       0       0       0       0       0
   479 ;;      Totals:         6       0       0       0       0       0       0
   480 ;;Total ram usage:        6 bytes
   481 ;; Hardware stack levels used:    1
   482 ;; Hardware stack levels required when called:    4
   483 ;; This function calls:
   484 ;;		_putLCD
   485 ;;		_utoa
   486 ;; This function is called by:
   487 ;;		_main
   488 ;; This function uses a non-reentrant model
   489 ;;
   490                           
   491                           	psect	text1
   492  000B0E                     __ptext1:
   493                           	opt stack 0
   494  000B0E                     _putIntLCD:
   495                           	opt stack 26
   496                           
   497                           ;main.c: 382: unsigned char result[4];
   498                           ;main.c: 383: utoa((char*)result, n, 10);
   499                           
   500                           ;incstack = 0
   501  000B0E  0E13               	movlw	low putIntLCD@result
   502  000B10  6E08               	movwf	utoa@buf,c
   503  000B12  0E00               	movlw	high putIntLCD@result
   504  000B14  6E09               	movwf	utoa@buf+1,c
   505  000B16  C011  F00A         	movff	putIntLCD@n,utoa@val
   506  000B1A  C012  F00B         	movff	putIntLCD@n+1,utoa@val+1
   507  000B1E  0E00               	movlw	0
   508  000B20  6E0D               	movwf	utoa@base+1,c
   509  000B22  0E0A               	movlw	10
   510  000B24  6E0C               	movwf	utoa@base,c
   511  000B26  ECF9  F003         	call	_utoa	;wreg free
   512                           
   513                           ;main.c: 384: putLCD(result);
   514  000B2A  0E13               	movlw	low putIntLCD@result
   515  000B2C  6E03               	movwf	putLCD@buffer,c
   516  000B2E  0E00               	movlw	high putIntLCD@result
   517  000B30  6E04               	movwf	putLCD@buffer+1,c
   518  000B32  EC4E  F004         	call	_putLCD	;wreg free
   519  000B36  0012               	return		;funcret
   520  000B38                     __end_of_putIntLCD:
   521                           	opt stack 0
   522                           tblptru	equ	0xFF8
   523                           
   524 ;; *************** function _utoa *****************
   525 ;; Defined at:
   526 ;;		line 17 in file "C:\Program Files (x86)\Microchip\xc8\v1.34\sources\common\itoa.c"
   527 ;; Parameters:    Size  Location     Type
   528 ;;  buf             2    7[COMRAM] PTR unsigned char 
   529 ;;		 -> putIntLCD@result(4), 
   530 ;;  val             2    9[COMRAM] unsigned int 
   531 ;;  base            2   11[COMRAM] int 
   532 ;; Auto vars:     Size  Location     Type
   533 ;;  v               2   13[COMRAM] unsigned int 
   534 ;;  c               1   15[COMRAM] unsigned char 
   535 ;; Return value:  Size  Location     Type
   536 ;;                  2    7[COMRAM] PTR unsigned char 
   537 ;; Registers used:
   538 ;;		wreg, fsr2l, fsr2h, status,2, status,0, cstack
   539 ;; Tracked objects:
   540 ;;		On entry : 0/0
   541 ;;		On exit  : 0/0
   542 ;;		Unchanged: 0/0
   543 ;; Data sizes:     COMRAM   BANK0   BANK1   BANK2   BANK3   BANK4   BANK5
   544 ;;      Params:         6       0       0       0       0       0       0
   545 ;;      Locals:         3       0       0       0       0       0       0
   546 ;;      Temps:          0       0       0       0       0       0       0
   547 ;;      Totals:         9       0       0       0       0       0       0
   548 ;;Total ram usage:        9 bytes
   549 ;; Hardware stack levels used:    1
   550 ;; Hardware stack levels required when called:    1
   551 ;; This function calls:
   552 ;;		___lwdiv
   553 ;;		___lwmod
   554 ;; This function is called by:
   555 ;;		_putIntLCD
   556 ;; This function uses a non-reentrant model
   557 ;;
   558                           
   559                           	psect	text2
   560  0007F2                     __ptext2:
   561                           	opt stack 0
   562  0007F2                     _utoa:
   563                           	opt stack 28
   564                           
   565                           ;incstack = 0
   566  0007F2  C00A  F00E         	movff	utoa@val,utoa@v
   567  0007F6  C00B  F00F         	movff	utoa@val+1,utoa@v+1
   568  0007FA  D000               	goto	l1172
   569  0007FC                     l1172:
   570  0007FC  C00E  F001         	movff	utoa@v,___lwdiv@dividend
   571  000800  C00F  F002         	movff	utoa@v+1,___lwdiv@dividend+1
   572  000804  C00C  F003         	movff	utoa@base,___lwdiv@divisor
   573  000808  C00D  F004         	movff	utoa@base+1,___lwdiv@divisor+1
   574  00080C  EC7E  F004         	call	___lwdiv	;wreg free
   575  000810  C001  F00E         	movff	?___lwdiv,utoa@v
   576  000814  C002  F00F         	movff	?___lwdiv+1,utoa@v+1
   577  000818  4A08               	infsnz	utoa@buf,f,c
   578  00081A  2A09               	incf	utoa@buf+1,f,c
   579  00081C  500E               	movf	utoa@v,w,c
   580  00081E  100F               	iorwf	utoa@v+1,w,c
   581  000820  A4D8               	btfss	status,2,c
   582  000822  D7EC               	goto	l1172
   583  000824  C008  FFD9         	movff	utoa@buf,fsr2l
   584  000828  C009  FFDA         	movff	utoa@buf+1,fsr2h
   585  00082C  0E00               	movlw	0
   586  00082E  6EDF               	movwf	indf2,c
   587  000830  0608               	decf	utoa@buf,f,c
   588  000832  A0D8               	btfss	status,0,c
   589  000834  0609               	decf	utoa@buf+1,f,c
   590  000836  D000               	goto	l1182
   591  000838                     l1182:
   592  000838  C00A  F001         	movff	utoa@val,___lwmod@dividend
   593  00083C  C00B  F002         	movff	utoa@val+1,___lwmod@dividend+1
   594  000840  C00C  F003         	movff	utoa@base,___lwmod@divisor
   595  000844  C00D  F004         	movff	utoa@base+1,___lwmod@divisor+1
   596  000848  EC03  F005         	call	___lwmod	;wreg free
   597  00084C  5001               	movf	?___lwmod,w,c
   598  00084E  6E10               	movwf	utoa@c,c
   599  000850  C00A  F001         	movff	utoa@val,___lwdiv@dividend
   600  000854  C00B  F002         	movff	utoa@val+1,___lwdiv@dividend+1
   601  000858  C00C  F003         	movff	utoa@base,___lwdiv@divisor
   602  00085C  C00D  F004         	movff	utoa@base+1,___lwdiv@divisor+1
   603  000860  EC7E  F004         	call	___lwdiv	;wreg free
   604  000864  C001  F00A         	movff	?___lwdiv,utoa@val
   605  000868  C002  F00B         	movff	?___lwdiv+1,utoa@val+1
   606  00086C  0E09               	movlw	9
   607  00086E  6410               	cpfsgt	utoa@c,c
   608  000870  D002               	goto	l581
   609  000872  0E07               	movlw	7
   610  000874  2610               	addwf	utoa@c,f,c
   611  000876                     l581:
   612  000876  0E30               	movlw	48
   613  000878  2610               	addwf	utoa@c,f,c
   614  00087A  C008  FFD9         	movff	utoa@buf,fsr2l
   615  00087E  C009  FFDA         	movff	utoa@buf+1,fsr2h
   616  000882  C010  FFDF         	movff	utoa@c,indf2
   617  000886  0608               	decf	utoa@buf,f,c
   618  000888  A0D8               	btfss	status,0,c
   619  00088A  0609               	decf	utoa@buf+1,f,c
   620  00088C  500A               	movf	utoa@val,w,c
   621  00088E  100B               	iorwf	utoa@val+1,w,c
   622  000890  A4D8               	btfss	status,2,c
   623  000892  D7D2               	goto	l1182
   624                           
   625                           ;	Return value of _utoa is never used
   626  000894  4A08               	infsnz	utoa@buf,f,c
   627  000896  2A09               	incf	utoa@buf+1,f,c
   628  000898  0012               	return	
   629  00089A  0012               	return		;funcret
   630  00089C                     __end_of_utoa:
   631                           	opt stack 0
   632                           tblptru	equ	0xFF8
   633                           indf2	equ	0xFDF
   634                           fsr2h	equ	0xFDA
   635                           fsr2l	equ	0xFD9
   636                           status	equ	0xFD8
   637                           
   638 ;; *************** function ___lwmod *****************
   639 ;; Defined at:
   640 ;;		line 8 in file "C:\Program Files (x86)\Microchip\xc8\v1.34\sources\common\lwmod.c"
   641 ;; Parameters:    Size  Location     Type
   642 ;;  dividend        2    0[COMRAM] unsigned int 
   643 ;;  divisor         2    2[COMRAM] unsigned int 
   644 ;; Auto vars:     Size  Location     Type
   645 ;;  counter         1    4[COMRAM] unsigned char 
   646 ;; Return value:  Size  Location     Type
   647 ;;                  2    0[COMRAM] unsigned int 
   648 ;; Registers used:
   649 ;;		wreg, status,2, status,0
   650 ;; Tracked objects:
   651 ;;		On entry : 0/0
   652 ;;		On exit  : 0/0
   653 ;;		Unchanged: 0/0
   654 ;; Data sizes:     COMRAM   BANK0   BANK1   BANK2   BANK3   BANK4   BANK5
   655 ;;      Params:         4       0       0       0       0       0       0
   656 ;;      Locals:         1       0       0       0       0       0       0
   657 ;;      Temps:          0       0       0       0       0       0       0
   658 ;;      Totals:         5       0       0       0       0       0       0
   659 ;;Total ram usage:        5 bytes
   660 ;; Hardware stack levels used:    1
   661 ;; This function calls:
   662 ;;		Nothing
   663 ;; This function is called by:
   664 ;;		_utoa
   665 ;; This function uses a non-reentrant model
   666 ;;
   667                           
   668                           	psect	text3
   669  000A06                     __ptext3:
   670                           	opt stack 0
   671  000A06                     ___lwmod:
   672                           	opt stack 28
   673                           
   674                           ;incstack = 0
   675  000A06  5003               	movf	___lwmod@divisor,w,c
   676  000A08  1004               	iorwf	___lwmod@divisor+1,w,c
   677  000A0A  B4D8               	btfsc	status,2,c
   678  000A0C  D01D               	goto	l685
   679  000A0E  0E01               	movlw	1
   680  000A10  6E05               	movwf	___lwmod@counter,c
   681  000A12  D005               	goto	l1150
   682  000A14                     l1148:
   683  000A14  90D8               	bcf	status,0,c
   684  000A16  3603               	rlcf	___lwmod@divisor,f,c
   685  000A18  3604               	rlcf	___lwmod@divisor+1,f,c
   686  000A1A  2A05               	incf	___lwmod@counter,f,c
   687  000A1C  D000               	goto	l1150
   688  000A1E                     l1150:
   689  000A1E  BE04               	btfsc	___lwmod@divisor+1,7,c
   690  000A20  D002               	goto	l1152
   691  000A22  D7F8               	goto	l1148
   692  000A24  D000               	goto	l1152
   693  000A26                     l1152:
   694  000A26  5003               	movf	___lwmod@divisor,w,c
   695  000A28  5C01               	subwf	___lwmod@dividend,w,c
   696  000A2A  5004               	movf	___lwmod@divisor+1,w,c
   697  000A2C  5802               	subwfb	___lwmod@dividend+1,w,c
   698  000A2E  A0D8               	btfss	status,0,c
   699  000A30  D005               	goto	l1156
   700  000A32  5003               	movf	___lwmod@divisor,w,c
   701  000A34  5E01               	subwf	___lwmod@dividend,f,c
   702  000A36  5004               	movf	___lwmod@divisor+1,w,c
   703  000A38  5A02               	subwfb	___lwmod@dividend+1,f,c
   704  000A3A  D000               	goto	l1156
   705  000A3C                     l1156:
   706  000A3C  90D8               	bcf	status,0,c
   707  000A3E  3204               	rrcf	___lwmod@divisor+1,f,c
   708  000A40  3203               	rrcf	___lwmod@divisor,f,c
   709  000A42  2E05               	decfsz	___lwmod@counter,f,c
   710  000A44  D7F0               	goto	l1152
   711  000A46  D000               	goto	l685
   712  000A48                     l685:
   713  000A48  C001  F001         	movff	___lwmod@dividend,?___lwmod
   714  000A4C  C002  F002         	movff	___lwmod@dividend+1,?___lwmod+1
   715  000A50  0012               	return		;funcret
   716  000A52                     __end_of___lwmod:
   717                           	opt stack 0
   718                           tblptru	equ	0xFF8
   719                           indf2	equ	0xFDF
   720                           fsr2h	equ	0xFDA
   721                           fsr2l	equ	0xFD9
   722                           status	equ	0xFD8
   723                           
   724 ;; *************** function ___lwdiv *****************
   725 ;; Defined at:
   726 ;;		line 8 in file "C:\Program Files (x86)\Microchip\xc8\v1.34\sources\common\lwdiv.c"
   727 ;; Parameters:    Size  Location     Type
   728 ;;  dividend        2    0[COMRAM] unsigned int 
   729 ;;  divisor         2    2[COMRAM] unsigned int 
   730 ;; Auto vars:     Size  Location     Type
   731 ;;  quotient        2    4[COMRAM] unsigned int 
   732 ;;  counter         1    6[COMRAM] unsigned char 
   733 ;; Return value:  Size  Location     Type
   734 ;;                  2    0[COMRAM] unsigned int 
   735 ;; Registers used:
   736 ;;		wreg, status,2, status,0
   737 ;; Tracked objects:
   738 ;;		On entry : 0/0
   739 ;;		On exit  : 0/0
   740 ;;		Unchanged: 0/0
   741 ;; Data sizes:     COMRAM   BANK0   BANK1   BANK2   BANK3   BANK4   BANK5
   742 ;;      Params:         4       0       0       0       0       0       0
   743 ;;      Locals:         3       0       0       0       0       0       0
   744 ;;      Temps:          0       0       0       0       0       0       0
   745 ;;      Totals:         7       0       0       0       0       0       0
   746 ;;Total ram usage:        7 bytes
   747 ;; Hardware stack levels used:    1
   748 ;; This function calls:
   749 ;;		Nothing
   750 ;; This function is called by:
   751 ;;		_utoa
   752 ;; This function uses a non-reentrant model
   753 ;;
   754                           
   755                           	psect	text4
   756  0008FC                     __ptext4:
   757                           	opt stack 0
   758  0008FC                     ___lwdiv:
   759                           	opt stack 28
   760                           
   761                           ;incstack = 0
   762  0008FC  0E00               	movlw	0
   763  0008FE  6E06               	movwf	___lwdiv@quotient+1,c
   764  000900  0E00               	movlw	0
   765  000902  6E05               	movwf	___lwdiv@quotient,c
   766  000904  5003               	movf	___lwdiv@divisor,w,c
   767  000906  1004               	iorwf	___lwdiv@divisor+1,w,c
   768  000908  B4D8               	btfsc	status,2,c
   769  00090A  D021               	goto	l675
   770  00090C  0E01               	movlw	1
   771  00090E  6E07               	movwf	___lwdiv@counter,c
   772  000910  D005               	goto	l1130
   773  000912                     l1128:
   774  000912  90D8               	bcf	status,0,c
   775  000914  3603               	rlcf	___lwdiv@divisor,f,c
   776  000916  3604               	rlcf	___lwdiv@divisor+1,f,c
   777  000918  2A07               	incf	___lwdiv@counter,f,c
   778  00091A  D000               	goto	l1130
   779  00091C                     l1130:
   780  00091C  BE04               	btfsc	___lwdiv@divisor+1,7,c
   781  00091E  D002               	goto	l1132
   782  000920  D7F8               	goto	l1128
   783  000922  D000               	goto	l1132
   784  000924                     l1132:
   785  000924  90D8               	bcf	status,0,c
   786  000926  3605               	rlcf	___lwdiv@quotient,f,c
   787  000928  3606               	rlcf	___lwdiv@quotient+1,f,c
   788  00092A  5003               	movf	___lwdiv@divisor,w,c
   789  00092C  5C01               	subwf	___lwdiv@dividend,w,c
   790  00092E  5004               	movf	___lwdiv@divisor+1,w,c
   791  000930  5802               	subwfb	___lwdiv@dividend+1,w,c
   792  000932  A0D8               	btfss	status,0,c
   793  000934  D006               	goto	l1140
   794  000936  5003               	movf	___lwdiv@divisor,w,c
   795  000938  5E01               	subwf	___lwdiv@dividend,f,c
   796  00093A  5004               	movf	___lwdiv@divisor+1,w,c
   797  00093C  5A02               	subwfb	___lwdiv@dividend+1,f,c
   798  00093E  8005               	bsf	___lwdiv@quotient,0,c
   799  000940  D000               	goto	l1140
   800  000942                     l1140:
   801  000942  90D8               	bcf	status,0,c
   802  000944  3204               	rrcf	___lwdiv@divisor+1,f,c
   803  000946  3203               	rrcf	___lwdiv@divisor,f,c
   804  000948  2E07               	decfsz	___lwdiv@counter,f,c
   805  00094A  D7EC               	goto	l1132
   806  00094C  D000               	goto	l675
   807  00094E                     l675:
   808  00094E  C005  F001         	movff	___lwdiv@quotient,?___lwdiv
   809  000952  C006  F002         	movff	___lwdiv@quotient+1,?___lwdiv+1
   810  000956  0012               	return		;funcret
   811  000958                     __end_of___lwdiv:
   812                           	opt stack 0
   813                           tblptru	equ	0xFF8
   814                           indf2	equ	0xFDF
   815                           fsr2h	equ	0xFDA
   816                           fsr2l	equ	0xFD9
   817                           status	equ	0xFD8
   818                           
   819 ;; *************** function _putLCD *****************
   820 ;; Defined at:
   821 ;;		line 419 in file "main.c"
   822 ;; Parameters:    Size  Location     Type
   823 ;;  buffer          2    2[COMRAM] PTR unsigned char 
   824 ;;		 -> putIntLCD@result(4), STR_2(12), STR_1(9), 
   825 ;; Auto vars:     Size  Location     Type
   826 ;;		None
   827 ;; Return value:  Size  Location     Type
   828 ;;		None               void
   829 ;; Registers used:
   830 ;;		wreg, fsr0l, fsr0h, status,2, status,0, tblptrl, tblptrh, tblptru, cstack
   831 ;; Tracked objects:
   832 ;;		On entry : 0/0
   833 ;;		On exit  : 0/0
   834 ;;		Unchanged: 0/0
   835 ;; Data sizes:     COMRAM   BANK0   BANK1   BANK2   BANK3   BANK4   BANK5
   836 ;;      Params:         2       0       0       0       0       0       0
   837 ;;      Locals:         0       0       0       0       0       0       0
   838 ;;      Temps:          0       0       0       0       0       0       0
   839 ;;      Totals:         2       0       0       0       0       0       0
   840 ;;Total ram usage:        2 bytes
   841 ;; Hardware stack levels used:    1
   842 ;; Hardware stack levels required when called:    3
   843 ;; This function calls:
   844 ;;		_BusyLCD
   845 ;;		_WriteDataLCD
   846 ;; This function is called by:
   847 ;;		_main
   848 ;;		_putIntLCD
   849 ;; This function uses a non-reentrant model
   850 ;;
   851                           
   852                           	psect	text5
   853  00089C                     __ptext5:
   854                           	opt stack 0
   855  00089C                     _putLCD:
   856                           	opt stack 27
   857                           
   858                           ;main.c: 421: while(*buffer)
   859                           
   860                           ;incstack = 0
   861  00089C  D01B               	goto	l1168
   862                           
   863                           ;main.c: 422: {
   864                           ;main.c: 423: while(BusyLCD());
   865  00089E  D000               	goto	l1162
   866  0008A0                     l1162:
   867  0008A0  EC69  F005         	call	_BusyLCD	;wreg free
   868  0008A4  0900               	iorlw	0
   869  0008A6  A4D8               	btfss	status,2,c
   870  0008A8  D7FB               	goto	l1162
   871                           
   872                           ;main.c: 424: WriteDataLCD(*buffer);
   873  0008AA  C003  FFF6         	movff	putLCD@buffer,tblptrl
   874  0008AE  C004  FFF7         	movff	putLCD@buffer+1,tblptrh
   875  0008B2  6AF8               	clrf	tblptru,c
   876  0008B4  0E05               	movlw	(high __ramtop+-1)
   877  0008B6  64F7               	cpfsgt	tblptrh,c
   878  0008B8  D003               	bra	u327
   879  0008BA  0008               	tblrd		*
   880  0008BC  50F5               	movf	tablat,w,c
   881  0008BE  D005               	bra	u320
   882  0008C0                     u327:
   883  0008C0  CFF6 FFE9          	movff	tblptrl,fsr0l
   884  0008C4  CFF7 FFEA          	movff	tblptrh,fsr0h
   885  0008C8  50EF               	movf	indf0,w,c
   886  0008CA                     u320:
   887  0008CA  EC29  F005         	call	_WriteDataLCD
   888                           
   889                           ;main.c: 425: buffer++;
   890  0008CE  4A03               	infsnz	putLCD@buffer,f,c
   891  0008D0  2A04               	incf	putLCD@buffer+1,f,c
   892  0008D2  D000               	goto	l1168
   893  0008D4                     l1168:
   894  0008D4  C003  FFF6         	movff	putLCD@buffer,tblptrl
   895  0008D8  C004  FFF7         	movff	putLCD@buffer+1,tblptrh
   896  0008DC  6AF8               	clrf	tblptru,c
   897  0008DE  0E05               	movlw	(high __ramtop+-1)
   898  0008E0  64F7               	cpfsgt	tblptrh,c
   899  0008E2  D003               	bra	u337
   900  0008E4  0008               	tblrd		*
   901  0008E6  50F5               	movf	tablat,w,c
   902  0008E8  D005               	bra	u330
   903  0008EA                     u337:
   904  0008EA  CFF6 FFE9          	movff	tblptrl,fsr0l
   905  0008EE  CFF7 FFEA          	movff	tblptrh,fsr0h
   906  0008F2  50EF               	movf	indf0,w,c
   907  0008F4                     u330:
   908  0008F4  0900               	iorlw	0
   909  0008F6  A4D8               	btfss	status,2,c
   910  0008F8  D7D3               	goto	l1162
   911                           
   912                           ;main.c: 426: }
   913                           ;main.c: 427: return;
   914  0008FA  0012               	return		;funcret
   915  0008FC                     __end_of_putLCD:
   916                           	opt stack 0
   917                           tblptru	equ	0xFF8
   918                           tblptrh	equ	0xFF7
   919                           tblptrl	equ	0xFF6
   920                           tablat	equ	0xFF5
   921                           indf0	equ	0xFEF
   922                           fsr0h	equ	0xFEA
   923                           fsr0l	equ	0xFE9
   924                           indf2	equ	0xFDF
   925                           fsr2h	equ	0xFDA
   926                           fsr2l	equ	0xFD9
   927                           status	equ	0xFD8
   928                           
   929 ;; *************** function _WriteDataLCD *****************
   930 ;; Defined at:
   931 ;;		line 430 in file "main.c"
   932 ;; Parameters:    Size  Location     Type
   933 ;;  data            1    wreg     unsigned char 
   934 ;; Auto vars:     Size  Location     Type
   935 ;;  data            1    1[COMRAM] unsigned char 
   936 ;; Return value:  Size  Location     Type
   937 ;;		None               void
   938 ;; Registers used:
   939 ;;		wreg, status,2, status,0, cstack
   940 ;; Tracked objects:
   941 ;;		On entry : 0/0
   942 ;;		On exit  : 0/0
   943 ;;		Unchanged: 0/0
   944 ;; Data sizes:     COMRAM   BANK0   BANK1   BANK2   BANK3   BANK4   BANK5
   945 ;;      Params:         0       0       0       0       0       0       0
   946 ;;      Locals:         1       0       0       0       0       0       0
   947 ;;      Temps:          0       0       0       0       0       0       0
   948 ;;      Totals:         1       0       0       0       0       0       0
   949 ;;Total ram usage:        1 bytes
   950 ;; Hardware stack levels used:    1
   951 ;; Hardware stack levels required when called:    2
   952 ;; This function calls:
   953 ;;		_DelayFor18TCY
   954 ;; This function is called by:
   955 ;;		_main
   956 ;;		_putLCD
   957 ;; This function uses a non-reentrant model
   958 ;;
   959                           
   960                           	psect	text6
   961  000A52                     __ptext6:
   962                           	opt stack 0
   963  000A52                     _WriteDataLCD:
   964                           	opt stack 27
   965                           
   966                           ;incstack = 0
   967                           ;WriteDataLCD@data stored from wreg
   968  000A52  6E02               	movwf	WriteDataLCD@data,c
   969                           
   970                           ;main.c: 433: TRISC &= 0xf0;
   971  000A54  0EF0               	movlw	240
   972  000A56  1694               	andwf	3988,f,c	;volatile
   973                           
   974                           ;main.c: 434: PORTC &= 0xf0;
   975  000A58  0EF0               	movlw	240
   976  000A5A  1682               	andwf	3970,f,c	;volatile
   977                           
   978                           ;main.c: 435: PORTC |= ((data>>4)&0x0f);
   979  000A5C  3802               	swapf	WriteDataLCD@data,w,c
   980  000A5E  0B0F               	andlw	15
   981  000A60  0B0F               	andlw	15
   982  000A62  1282               	iorwf	3970,f,c	;volatile
   983                           
   984                           ;main.c: 437: LATCbits.LATC4 = 1;
   985  000A64  888B               	bsf	3979,4,c	;volatile
   986                           
   987                           ;main.c: 438: LATCbits.LATC5 = 0;
   988  000A66  9A8B               	bcf	3979,5,c	;volatile
   989                           
   990                           ;main.c: 439: DelayFor18TCY();
   991  000A68  ECD6  F005         	call	_DelayFor18TCY	;wreg free
   992                           
   993                           ;main.c: 440: LATCbits.LATC6 = 1;
   994  000A6C  8C8B               	bsf	3979,6,c	;volatile
   995                           
   996                           ;main.c: 441: DelayFor18TCY();
   997  000A6E  ECD6  F005         	call	_DelayFor18TCY	;wreg free
   998                           
   999                           ;main.c: 442: LATCbits.LATC6 = 0;
  1000  000A72  9C8B               	bcf	3979,6,c	;volatile
  1001                           
  1002                           ;main.c: 444: PORTC &= 0xf0;
  1003  000A74  0EF0               	movlw	240
  1004  000A76  1682               	andwf	3970,f,c	;volatile
  1005                           
  1006                           ;main.c: 445: PORTC |= (data&0x0f);
  1007  000A78  5002               	movf	WriteDataLCD@data,w,c
  1008  000A7A  0B0F               	andlw	15
  1009  000A7C  1282               	iorwf	3970,f,c	;volatile
  1010                           
  1011                           ;main.c: 447: DelayFor18TCY();
  1012  000A7E  ECD6  F005         	call	_DelayFor18TCY	;wreg free
  1013                           
  1014                           ;main.c: 448: LATCbits.LATC6 = 1;
  1015  000A82  8C8B               	bsf	3979,6,c	;volatile
  1016                           
  1017                           ;main.c: 449: DelayFor18TCY();
  1018  000A84  ECD6  F005         	call	_DelayFor18TCY	;wreg free
  1019                           
  1020                           ;main.c: 450: LATCbits.LATC6 = 0;
  1021  000A88  9C8B               	bcf	3979,6,c	;volatile
  1022                           
  1023                           ;main.c: 452: TRISC |= 0x0f;
  1024  000A8A  0E0F               	movlw	15
  1025  000A8C  1294               	iorwf	3988,f,c	;volatile
  1026  000A8E  0012               	return	
  1027                           
  1028                           ;main.c: 454: return;
  1029  000A90  0012               	return		;funcret
  1030  000A92                     __end_of_WriteDataLCD:
  1031                           	opt stack 0
  1032                           tblptru	equ	0xFF8
  1033                           tblptrh	equ	0xFF7
  1034                           tblptrl	equ	0xFF6
  1035                           tablat	equ	0xFF5
  1036                           indf0	equ	0xFEF
  1037                           fsr0h	equ	0xFEA
  1038                           fsr0l	equ	0xFE9
  1039                           indf2	equ	0xFDF
  1040                           fsr2h	equ	0xFDA
  1041                           fsr2l	equ	0xFD9
  1042                           status	equ	0xFD8
  1043                           
  1044 ;; *************** function _SetLCDCGRamAddr *****************
  1045 ;; Defined at:
  1046 ;;		line 352 in file "main.c"
  1047 ;; Parameters:    Size  Location     Type
  1048 ;;  CGaddr          1    wreg     unsigned char 
  1049 ;; Auto vars:     Size  Location     Type
  1050 ;;  CGaddr          1    4[COMRAM] unsigned char 
  1051 ;; Return value:  Size  Location     Type
  1052 ;;		None               void
  1053 ;; Registers used:
  1054 ;;		wreg, status,2, status,0, cstack
  1055 ;; Tracked objects:
  1056 ;;		On entry : 0/0
  1057 ;;		On exit  : 0/0
  1058 ;;		Unchanged: 0/0
  1059 ;; Data sizes:     COMRAM   BANK0   BANK1   BANK2   BANK3   BANK4   BANK5
  1060 ;;      Params:         0       0       0       0       0       0       0
  1061 ;;      Locals:         1       0       0       0       0       0       0
  1062 ;;      Temps:          3       0       0       0       0       0       0
  1063 ;;      Totals:         4       0       0       0       0       0       0
  1064 ;;Total ram usage:        4 bytes
  1065 ;; Hardware stack levels used:    1
  1066 ;; Hardware stack levels required when called:    2
  1067 ;; This function calls:
  1068 ;;		_DelayFor18TCY
  1069 ;; This function is called by:
  1070 ;;		_main
  1071 ;; This function uses a non-reentrant model
  1072 ;;
  1073                           
  1074                           	psect	text7
  1075  000958                     __ptext7:
  1076                           	opt stack 0
  1077  000958                     _SetLCDCGRamAddr:
  1078                           	opt stack 28
  1079                           
  1080                           ;incstack = 0
  1081                           ;SetLCDCGRamAddr@CGaddr stored from wreg
  1082  000958  6E05               	movwf	SetLCDCGRamAddr@CGaddr,c
  1083                           
  1084                           ;main.c: 356: TRISC &= 0xf0;
  1085  00095A  0EF0               	movlw	240
  1086  00095C  1694               	andwf	3988,f,c	;volatile
  1087                           
  1088                           ;main.c: 357: PORTC &= 0xf0;
  1089  00095E  0EF0               	movlw	240
  1090  000960  1682               	andwf	3970,f,c	;volatile
  1091                           
  1092                           ;main.c: 358: PORTC |= (((CGaddr |0b01000000)>>4) & 0x0f);
  1093  000962  5005               	movf	SetLCDCGRamAddr@CGaddr,w,c
  1094  000964  6E02               	movwf	??_SetLCDCGRamAddr& (0+255),c
  1095  000966  6A03               	clrf	(??_SetLCDCGRamAddr+1)& (0+255),c
  1096  000968  0E40               	movlw	64
  1097  00096A  1202               	iorwf	??_SetLCDCGRamAddr,f,c
  1098  00096C  0E00               	movlw	0
  1099  00096E  1203               	iorwf	??_SetLCDCGRamAddr+1,f,c
  1100  000970  0E04               	movlw	4
  1101  000972  6E04               	movwf	(??_SetLCDCGRamAddr+2)& (0+255),c
  1102  000974                     u245:
  1103  000974  3403               	rlcf	??_SetLCDCGRamAddr+1,w,c
  1104  000976  3203               	rrcf	??_SetLCDCGRamAddr+1,f,c
  1105  000978  3202               	rrcf	??_SetLCDCGRamAddr,f,c
  1106  00097A  2E04               	decfsz	(??_SetLCDCGRamAddr+2)& (0+255),f,c
  1107  00097C  D7FB               	goto	u245
  1108  00097E  5002               	movf	??_SetLCDCGRamAddr,w,c
  1109  000980  0B0F               	andlw	15
  1110  000982  1282               	iorwf	3970,f,c	;volatile
  1111                           
  1112                           ;main.c: 360: LATCbits.LATC5 = 0;
  1113  000984  9A8B               	bcf	3979,5,c	;volatile
  1114                           
  1115                           ;main.c: 361: LATCbits.LATC4 = 0;
  1116  000986  988B               	bcf	3979,4,c	;volatile
  1117                           
  1118                           ;main.c: 362: DelayFor18TCY();
  1119  000988  ECD6  F005         	call	_DelayFor18TCY	;wreg free
  1120                           
  1121                           ;main.c: 363: LATCbits.LATC6 = 1;
  1122  00098C  8C8B               	bsf	3979,6,c	;volatile
  1123                           
  1124                           ;main.c: 364: DelayFor18TCY();
  1125  00098E  ECD6  F005         	call	_DelayFor18TCY	;wreg free
  1126                           
  1127                           ;main.c: 365: LATCbits.LATC6 = 0;
  1128  000992  9C8B               	bcf	3979,6,c	;volatile
  1129                           
  1130                           ;main.c: 367: PORTC &= 0xf0;
  1131  000994  0EF0               	movlw	240
  1132  000996  1682               	andwf	3970,f,c	;volatile
  1133                           
  1134                           ;main.c: 368: PORTC |= (CGaddr&0x0f);
  1135  000998  5005               	movf	SetLCDCGRamAddr@CGaddr,w,c
  1136  00099A  0B0F               	andlw	15
  1137  00099C  1282               	iorwf	3970,f,c	;volatile
  1138                           
  1139                           ;main.c: 370: DelayFor18TCY();
  1140  00099E  ECD6  F005         	call	_DelayFor18TCY	;wreg free
  1141                           
  1142                           ;main.c: 371: LATCbits.LATC6 = 1;
  1143  0009A2  8C8B               	bsf	3979,6,c	;volatile
  1144                           
  1145                           ;main.c: 372: DelayFor18TCY();
  1146  0009A4  ECD6  F005         	call	_DelayFor18TCY	;wreg free
  1147                           
  1148                           ;main.c: 373: LATCbits.LATC6 = 0;
  1149  0009A8  9C8B               	bcf	3979,6,c	;volatile
  1150                           
  1151                           ;main.c: 375: TRISC |= 0x0f;
  1152  0009AA  0E0F               	movlw	15
  1153  0009AC  1294               	iorwf	3988,f,c	;volatile
  1154  0009AE  0012               	return	
  1155                           
  1156                           ;main.c: 376: return;
  1157  0009B0  0012               	return		;funcret
  1158  0009B2                     __end_of_SetLCDCGRamAddr:
  1159                           	opt stack 0
  1160                           tblptru	equ	0xFF8
  1161                           tblptrh	equ	0xFF7
  1162                           tblptrl	equ	0xFF6
  1163                           tablat	equ	0xFF5
  1164                           indf0	equ	0xFEF
  1165                           fsr0h	equ	0xFEA
  1166                           fsr0l	equ	0xFE9
  1167                           indf2	equ	0xFDF
  1168                           fsr2h	equ	0xFDA
  1169                           fsr2l	equ	0xFD9
  1170                           status	equ	0xFD8
  1171                           
  1172 ;; *************** function _InitLCD *****************
  1173 ;; Defined at:
  1174 ;;		line 199 in file "main.c"
  1175 ;; Parameters:    Size  Location     Type
  1176 ;;		None
  1177 ;; Auto vars:     Size  Location     Type
  1178 ;;		None
  1179 ;; Return value:  Size  Location     Type
  1180 ;;		None               void
  1181 ;; Registers used:
  1182 ;;		wreg, status,2, status,0, cstack
  1183 ;; Tracked objects:
  1184 ;;		On entry : 0/0
  1185 ;;		On exit  : 0/0
  1186 ;;		Unchanged: 0/0
  1187 ;; Data sizes:     COMRAM   BANK0   BANK1   BANK2   BANK3   BANK4   BANK5
  1188 ;;      Params:         0       0       0       0       0       0       0
  1189 ;;      Locals:         0       0       0       0       0       0       0
  1190 ;;      Temps:          0       0       0       0       0       0       0
  1191 ;;      Totals:         0       0       0       0       0       0       0
  1192 ;;Total ram usage:        0 bytes
  1193 ;; Hardware stack levels used:    1
  1194 ;; Hardware stack levels required when called:    4
  1195 ;; This function calls:
  1196 ;;		_BusyLCD
  1197 ;;		_OpenLCD
  1198 ;;		_WriteCmdLCD
  1199 ;; This function is called by:
  1200 ;;		_main
  1201 ;; This function uses a non-reentrant model
  1202 ;;
  1203                           
  1204                           	psect	text8
  1205  000B38                     __ptext8:
  1206                           	opt stack 0
  1207  000B38                     _InitLCD:
  1208                           	opt stack 26
  1209                           
  1210                           ;main.c: 200: OpenLCD(0b00101100 & 0b00111000);
  1211                           
  1212                           ;incstack = 0
  1213  000B38  0E28               	movlw	40
  1214  000B3A  ECA1  F003         	call	_OpenLCD
  1215                           
  1216                           ;main.c: 201: while(BusyLCD());
  1217  000B3E  D000               	goto	l984
  1218  000B40                     l984:
  1219  000B40  EC69  F005         	call	_BusyLCD	;wreg free
  1220  000B44  0900               	iorlw	0
  1221  000B46  A4D8               	btfss	status,2,c
  1222  000B48  D7FB               	goto	l984
  1223                           
  1224                           ;main.c: 202: WriteCmdLCD(0x06);
  1225  000B4A  0E06               	movlw	6
  1226  000B4C  EC49  F005         	call	_WriteCmdLCD
  1227                           
  1228                           ;main.c: 203: WriteCmdLCD(0x0C);
  1229  000B50  0E0C               	movlw	12
  1230  000B52  EC49  F005         	call	_WriteCmdLCD
  1231  000B56  0012               	return		;funcret
  1232  000B58                     __end_of_InitLCD:
  1233                           	opt stack 0
  1234                           tblptru	equ	0xFF8
  1235                           tblptrh	equ	0xFF7
  1236                           tblptrl	equ	0xFF6
  1237                           tablat	equ	0xFF5
  1238                           indf0	equ	0xFEF
  1239                           fsr0h	equ	0xFEA
  1240                           fsr0l	equ	0xFE9
  1241                           indf2	equ	0xFDF
  1242                           fsr2h	equ	0xFDA
  1243                           fsr2l	equ	0xFD9
  1244                           status	equ	0xFD8
  1245                           
  1246 ;; *************** function _OpenLCD *****************
  1247 ;; Defined at:
  1248 ;;		line 212 in file "main.c"
  1249 ;; Parameters:    Size  Location     Type
  1250 ;;  lcdtype         1    wreg     unsigned char 
  1251 ;; Auto vars:     Size  Location     Type
  1252 ;;  lcdtype         1    5[COMRAM] unsigned char 
  1253 ;; Return value:  Size  Location     Type
  1254 ;;		None               void
  1255 ;; Registers used:
  1256 ;;		wreg, status,2, status,0, cstack
  1257 ;; Tracked objects:
  1258 ;;		On entry : 0/0
  1259 ;;		On exit  : 0/0
  1260 ;;		Unchanged: 0/0
  1261 ;; Data sizes:     COMRAM   BANK0   BANK1   BANK2   BANK3   BANK4   BANK5
  1262 ;;      Params:         0       0       0       0       0       0       0
  1263 ;;      Locals:         1       0       0       0       0       0       0
  1264 ;;      Temps:          0       0       0       0       0       0       0
  1265 ;;      Totals:         1       0       0       0       0       0       0
  1266 ;;Total ram usage:        1 bytes
  1267 ;; Hardware stack levels used:    1
  1268 ;; Hardware stack levels required when called:    3
  1269 ;; This function calls:
  1270 ;;		_BusyLCD
  1271 ;;		_Delay100TCYx
  1272 ;;		_Delay10KTCYx
  1273 ;;		_SetLCDDDRamAddr
  1274 ;;		_WriteCmdLCD
  1275 ;; This function is called by:
  1276 ;;		_InitLCD
  1277 ;; This function uses a non-reentrant model
  1278 ;;
  1279                           
  1280                           	psect	text9
  1281  000742                     __ptext9:
  1282                           	opt stack 0
  1283  000742                     _OpenLCD:
  1284                           	opt stack 26
  1285                           
  1286                           ;incstack = 0
  1287                           ;OpenLCD@lcdtype stored from wreg
  1288  000742  6E06               	movwf	OpenLCD@lcdtype,c
  1289                           
  1290                           ;main.c: 216: TRISCbits.TRISC5 = 0;
  1291  000744  9A94               	bcf	3988,5,c	;volatile
  1292                           
  1293                           ;main.c: 217: TRISCbits.TRISC4 = 0;
  1294  000746  9894               	bcf	3988,4,c	;volatile
  1295                           
  1296                           ;main.c: 218: TRISCbits.TRISC6 = 0;
  1297  000748  9C94               	bcf	3988,6,c	;volatile
  1298                           
  1299                           ;main.c: 219: LATCbits.LATC5 = 0;
  1300  00074A  9A8B               	bcf	3979,5,c	;volatile
  1301                           
  1302                           ;main.c: 220: LATCbits.LATC4 = 0;
  1303  00074C  988B               	bcf	3979,4,c	;volatile
  1304                           
  1305                           ;main.c: 221: LATCbits.LATC6 = 0;
  1306  00074E  9C8B               	bcf	3979,6,c	;volatile
  1307                           
  1308                           ;main.c: 228: Delay100TCYx(38);
  1309  000750  0E26               	movlw	38
  1310  000752  ECB8  F005         	call	_Delay100TCYx
  1311                           
  1312                           ;main.c: 231: WriteCmdLCD(0x30);
  1313  000756  0E30               	movlw	48
  1314  000758  EC49  F005         	call	_WriteCmdLCD
  1315                           
  1316                           ;main.c: 232: Delay10KTCYx(0x05);
  1317  00075C  0E05               	movlw	5
  1318  00075E  ECAC  F005         	call	_Delay10KTCYx
  1319                           
  1320                           ;main.c: 234: WriteCmdLCD(0x30);
  1321  000762  0E30               	movlw	48
  1322  000764  EC49  F005         	call	_WriteCmdLCD
  1323                           
  1324                           ;main.c: 235: Delay10KTCYx(0x01);
  1325  000768  0E01               	movlw	1
  1326  00076A  ECAC  F005         	call	_Delay10KTCYx
  1327                           
  1328                           ;main.c: 237: WriteCmdLCD(0x32);
  1329  00076E  0E32               	movlw	50
  1330  000770  EC49  F005         	call	_WriteCmdLCD
  1331                           
  1332                           ;main.c: 238: while( BusyLCD() );
  1333  000774  D000               	goto	l924
  1334  000776                     l924:
  1335  000776  EC69  F005         	call	_BusyLCD	;wreg free
  1336  00077A  0900               	iorlw	0
  1337  00077C  B4D8               	btfsc	status,2,c
  1338  00077E  D002               	goto	l926
  1339  000780  D7FA               	goto	l924
  1340                           
  1341                           ;main.c: 243: while(BusyLCD());
  1342  000782  D000               	goto	l926
  1343  000784                     l926:
  1344  000784  EC69  F005         	call	_BusyLCD	;wreg free
  1345  000788  0900               	iorlw	0
  1346  00078A  A4D8               	btfss	status,2,c
  1347  00078C  D7FB               	goto	l926
  1348                           
  1349                           ;main.c: 244: WriteCmdLCD(lcdtype);
  1350  00078E  5006               	movf	OpenLCD@lcdtype,w,c
  1351  000790  EC49  F005         	call	_WriteCmdLCD
  1352                           
  1353                           ;main.c: 247: while(BusyLCD());
  1354  000794  D000               	goto	l930
  1355  000796                     l930:
  1356  000796  EC69  F005         	call	_BusyLCD	;wreg free
  1357  00079A  0900               	iorlw	0
  1358  00079C  A4D8               	btfss	status,2,c
  1359  00079E  D7FB               	goto	l930
  1360                           
  1361                           ;main.c: 248: WriteCmdLCD(0b00001011&0b00001101&0b00001110);
  1362  0007A0  0E08               	movlw	8
  1363  0007A2  EC49  F005         	call	_WriteCmdLCD
  1364                           
  1365                           ;main.c: 249: while(BusyLCD());
  1366  0007A6  D000               	goto	l934
  1367  0007A8                     l934:
  1368  0007A8  EC69  F005         	call	_BusyLCD	;wreg free
  1369  0007AC  0900               	iorlw	0
  1370  0007AE  A4D8               	btfss	status,2,c
  1371  0007B0  D7FB               	goto	l934
  1372                           
  1373                           ;main.c: 250: WriteCmdLCD(0b00001111&0b00001111&0b00001111);
  1374  0007B2  0E0F               	movlw	15
  1375  0007B4  EC49  F005         	call	_WriteCmdLCD
  1376                           
  1377                           ;main.c: 253: while(BusyLCD());
  1378  0007B8  D000               	goto	l938
  1379  0007BA                     l938:
  1380  0007BA  EC69  F005         	call	_BusyLCD	;wreg free
  1381  0007BE  0900               	iorlw	0
  1382  0007C0  A4D8               	btfss	status,2,c
  1383  0007C2  D7FB               	goto	l938
  1384                           
  1385                           ;main.c: 254: WriteCmdLCD(0x01);
  1386  0007C4  0E01               	movlw	1
  1387  0007C6  EC49  F005         	call	_WriteCmdLCD
  1388                           
  1389                           ;main.c: 257: while(BusyLCD());
  1390  0007CA  D000               	goto	l942
  1391  0007CC                     l942:
  1392  0007CC  EC69  F005         	call	_BusyLCD	;wreg free
  1393  0007D0  0900               	iorlw	0
  1394  0007D2  A4D8               	btfss	status,2,c
  1395  0007D4  D7FB               	goto	l942
  1396                           
  1397                           ;main.c: 258: WriteCmdLCD(0b00000100);
  1398  0007D6  0E04               	movlw	4
  1399  0007D8  EC49  F005         	call	_WriteCmdLCD
  1400                           
  1401                           ;main.c: 261: while(BusyLCD());
  1402  0007DC  D000               	goto	l946
  1403  0007DE                     l946:
  1404  0007DE  EC69  F005         	call	_BusyLCD	;wreg free
  1405  0007E2  0900               	iorlw	0
  1406  0007E4  A4D8               	btfss	status,2,c
  1407  0007E6  D7FB               	goto	l946
  1408                           
  1409                           ;main.c: 262: SetLCDDDRamAddr(0x80);
  1410  0007E8  0E80               	movlw	128
  1411  0007EA  ECD9  F004         	call	_SetLCDDDRamAddr
  1412  0007EE  0012               	return	
  1413                           
  1414                           ;main.c: 264: return;
  1415  0007F0  0012               	return		;funcret
  1416  0007F2                     __end_of_OpenLCD:
  1417                           	opt stack 0
  1418                           tblptru	equ	0xFF8
  1419                           tblptrh	equ	0xFF7
  1420                           tblptrl	equ	0xFF6
  1421                           tablat	equ	0xFF5
  1422                           indf0	equ	0xFEF
  1423                           fsr0h	equ	0xFEA
  1424                           fsr0l	equ	0xFE9
  1425                           indf2	equ	0xFDF
  1426                           fsr2h	equ	0xFDA
  1427                           fsr2l	equ	0xFD9
  1428                           status	equ	0xFD8
  1429                           
  1430 ;; *************** function _WriteCmdLCD *****************
  1431 ;; Defined at:
  1432 ;;		line 267 in file "main.c"
  1433 ;; Parameters:    Size  Location     Type
  1434 ;;  cmd             1    wreg     unsigned char 
  1435 ;; Auto vars:     Size  Location     Type
  1436 ;;  cmd             1    1[COMRAM] unsigned char 
  1437 ;; Return value:  Size  Location     Type
  1438 ;;		None               void
  1439 ;; Registers used:
  1440 ;;		wreg, status,2, status,0, cstack
  1441 ;; Tracked objects:
  1442 ;;		On entry : 0/0
  1443 ;;		On exit  : 0/0
  1444 ;;		Unchanged: 0/0
  1445 ;; Data sizes:     COMRAM   BANK0   BANK1   BANK2   BANK3   BANK4   BANK5
  1446 ;;      Params:         0       0       0       0       0       0       0
  1447 ;;      Locals:         1       0       0       0       0       0       0
  1448 ;;      Temps:          0       0       0       0       0       0       0
  1449 ;;      Totals:         1       0       0       0       0       0       0
  1450 ;;Total ram usage:        1 bytes
  1451 ;; Hardware stack levels used:    1
  1452 ;; Hardware stack levels required when called:    2
  1453 ;; This function calls:
  1454 ;;		_DelayFor18TCY
  1455 ;; This function is called by:
  1456 ;;		_main
  1457 ;;		_InitLCD
  1458 ;;		_OpenLCD
  1459 ;; This function uses a non-reentrant model
  1460 ;;
  1461                           
  1462                           	psect	text10
  1463  000A92                     __ptext10:
  1464                           	opt stack 0
  1465  000A92                     _WriteCmdLCD:
  1466                           	opt stack 28
  1467                           
  1468                           ;incstack = 0
  1469                           ;WriteCmdLCD@cmd stored from wreg
  1470  000A92  6E02               	movwf	WriteCmdLCD@cmd,c
  1471                           
  1472                           ;main.c: 270: TRISC &= 0xf0;
  1473  000A94  0EF0               	movlw	240
  1474  000A96  1694               	andwf	3988,f,c	;volatile
  1475                           
  1476                           ;main.c: 271: PORTC &= 0xf0;
  1477  000A98  0EF0               	movlw	240
  1478  000A9A  1682               	andwf	3970,f,c	;volatile
  1479                           
  1480                           ;main.c: 272: PORTC |= (cmd>>4)&0x0f;
  1481  000A9C  3802               	swapf	WriteCmdLCD@cmd,w,c
  1482  000A9E  0B0F               	andlw	15
  1483  000AA0  0B0F               	andlw	15
  1484  000AA2  1282               	iorwf	3970,f,c	;volatile
  1485                           
  1486                           ;main.c: 274: LATCbits.LATC5 = 0;
  1487  000AA4  9A8B               	bcf	3979,5,c	;volatile
  1488                           
  1489                           ;main.c: 275: LATCbits.LATC4 = 0;
  1490  000AA6  988B               	bcf	3979,4,c	;volatile
  1491                           
  1492                           ;main.c: 276: DelayFor18TCY();
  1493  000AA8  ECD6  F005         	call	_DelayFor18TCY	;wreg free
  1494                           
  1495                           ;main.c: 277: LATCbits.LATC6 = 1;
  1496  000AAC  8C8B               	bsf	3979,6,c	;volatile
  1497                           
  1498                           ;main.c: 278: DelayFor18TCY();
  1499  000AAE  ECD6  F005         	call	_DelayFor18TCY	;wreg free
  1500                           
  1501                           ;main.c: 279: LATCbits.LATC6 = 0;
  1502  000AB2  9C8B               	bcf	3979,6,c	;volatile
  1503                           
  1504                           ;main.c: 281: PORTC &= 0xf0;
  1505  000AB4  0EF0               	movlw	240
  1506  000AB6  1682               	andwf	3970,f,c	;volatile
  1507                           
  1508                           ;main.c: 282: PORTC |= cmd&0x0f;
  1509  000AB8  5002               	movf	WriteCmdLCD@cmd,w,c
  1510  000ABA  0B0F               	andlw	15
  1511  000ABC  1282               	iorwf	3970,f,c	;volatile
  1512                           
  1513                           ;main.c: 284: DelayFor18TCY();
  1514  000ABE  ECD6  F005         	call	_DelayFor18TCY	;wreg free
  1515                           
  1516                           ;main.c: 285: LATCbits.LATC6 = 1;
  1517  000AC2  8C8B               	bsf	3979,6,c	;volatile
  1518                           
  1519                           ;main.c: 286: DelayFor18TCY();
  1520  000AC4  ECD6  F005         	call	_DelayFor18TCY	;wreg free
  1521                           
  1522                           ;main.c: 287: LATCbits.LATC6 = 0;
  1523  000AC8  9C8B               	bcf	3979,6,c	;volatile
  1524                           
  1525                           ;main.c: 289: TRISC |= 0x0f;
  1526  000ACA  0E0F               	movlw	15
  1527  000ACC  1294               	iorwf	3988,f,c	;volatile
  1528  000ACE  0012               	return	
  1529                           
  1530                           ;main.c: 291: return;
  1531  000AD0  0012               	return		;funcret
  1532  000AD2                     __end_of_WriteCmdLCD:
  1533                           	opt stack 0
  1534                           tblptru	equ	0xFF8
  1535                           tblptrh	equ	0xFF7
  1536                           tblptrl	equ	0xFF6
  1537                           tablat	equ	0xFF5
  1538                           indf0	equ	0xFEF
  1539                           fsr0h	equ	0xFEA
  1540                           fsr0l	equ	0xFE9
  1541                           indf2	equ	0xFDF
  1542                           fsr2h	equ	0xFDA
  1543                           fsr2l	equ	0xFD9
  1544                           status	equ	0xFD8
  1545                           
  1546 ;; *************** function _SetLCDDDRamAddr *****************
  1547 ;; Defined at:
  1548 ;;		line 325 in file "main.c"
  1549 ;; Parameters:    Size  Location     Type
  1550 ;;  DDaddr          1    wreg     unsigned char 
  1551 ;; Auto vars:     Size  Location     Type
  1552 ;;  DDaddr          1    4[COMRAM] unsigned char 
  1553 ;; Return value:  Size  Location     Type
  1554 ;;		None               void
  1555 ;; Registers used:
  1556 ;;		wreg, status,2, status,0, cstack
  1557 ;; Tracked objects:
  1558 ;;		On entry : 0/0
  1559 ;;		On exit  : 0/0
  1560 ;;		Unchanged: 0/0
  1561 ;; Data sizes:     COMRAM   BANK0   BANK1   BANK2   BANK3   BANK4   BANK5
  1562 ;;      Params:         0       0       0       0       0       0       0
  1563 ;;      Locals:         1       0       0       0       0       0       0
  1564 ;;      Temps:          3       0       0       0       0       0       0
  1565 ;;      Totals:         4       0       0       0       0       0       0
  1566 ;;Total ram usage:        4 bytes
  1567 ;; Hardware stack levels used:    1
  1568 ;; Hardware stack levels required when called:    2
  1569 ;; This function calls:
  1570 ;;		_DelayFor18TCY
  1571 ;; This function is called by:
  1572 ;;		_main
  1573 ;;		_OpenLCD
  1574 ;; This function uses a non-reentrant model
  1575 ;;
  1576                           
  1577                           	psect	text11
  1578  0009B2                     __ptext11:
  1579                           	opt stack 0
  1580  0009B2                     _SetLCDDDRamAddr:
  1581                           	opt stack 28
  1582                           
  1583                           ;incstack = 0
  1584                           ;SetLCDDDRamAddr@DDaddr stored from wreg
  1585  0009B2  6E05               	movwf	SetLCDDDRamAddr@DDaddr,c
  1586                           
  1587                           ;main.c: 328: TRISC &= 0xf0;
  1588  0009B4  0EF0               	movlw	240
  1589  0009B6  1694               	andwf	3988,f,c	;volatile
  1590                           
  1591                           ;main.c: 329: PORTC &= 0xf0;
  1592  0009B8  0EF0               	movlw	240
  1593  0009BA  1682               	andwf	3970,f,c	;volatile
  1594                           
  1595                           ;main.c: 330: PORTC |= (((DDaddr | 0b10000000)>>4) & 0x0f);
  1596  0009BC  5005               	movf	SetLCDDDRamAddr@DDaddr,w,c
  1597  0009BE  6E02               	movwf	??_SetLCDDDRamAddr& (0+255),c
  1598  0009C0  6A03               	clrf	(??_SetLCDDDRamAddr+1)& (0+255),c
  1599  0009C2  8E02               	bsf	??_SetLCDDDRamAddr,7,c
  1600  0009C4  0E04               	movlw	4
  1601  0009C6  6E04               	movwf	(??_SetLCDDDRamAddr+2)& (0+255),c
  1602  0009C8                     u15:
  1603  0009C8  3403               	rlcf	??_SetLCDDDRamAddr+1,w,c
  1604  0009CA  3203               	rrcf	??_SetLCDDDRamAddr+1,f,c
  1605  0009CC  3202               	rrcf	??_SetLCDDDRamAddr,f,c
  1606  0009CE  2E04               	decfsz	(??_SetLCDDDRamAddr+2)& (0+255),f,c
  1607  0009D0  D7FB               	goto	u15
  1608  0009D2  5002               	movf	??_SetLCDDDRamAddr,w,c
  1609  0009D4  0B0F               	andlw	15
  1610  0009D6  1282               	iorwf	3970,f,c	;volatile
  1611                           
  1612                           ;main.c: 332: LATCbits.LATC5 = 0;
  1613  0009D8  9A8B               	bcf	3979,5,c	;volatile
  1614                           
  1615                           ;main.c: 333: LATCbits.LATC4 = 0;
  1616  0009DA  988B               	bcf	3979,4,c	;volatile
  1617                           
  1618                           ;main.c: 334: DelayFor18TCY();
  1619  0009DC  ECD6  F005         	call	_DelayFor18TCY	;wreg free
  1620                           
  1621                           ;main.c: 335: LATCbits.LATC6 = 1;
  1622  0009E0  8C8B               	bsf	3979,6,c	;volatile
  1623                           
  1624                           ;main.c: 336: DelayFor18TCY();
  1625  0009E2  ECD6  F005         	call	_DelayFor18TCY	;wreg free
  1626                           
  1627                           ;main.c: 337: LATCbits.LATC6 = 0;
  1628  0009E6  9C8B               	bcf	3979,6,c	;volatile
  1629                           
  1630                           ;main.c: 339: PORTC &= 0xf0;
  1631  0009E8  0EF0               	movlw	240
  1632  0009EA  1682               	andwf	3970,f,c	;volatile
  1633                           
  1634                           ;main.c: 340: PORTC |= (DDaddr&0x0f);
  1635  0009EC  5005               	movf	SetLCDDDRamAddr@DDaddr,w,c
  1636  0009EE  0B0F               	andlw	15
  1637  0009F0  1282               	iorwf	3970,f,c	;volatile
  1638                           
  1639                           ;main.c: 342: DelayFor18TCY();
  1640  0009F2  ECD6  F005         	call	_DelayFor18TCY	;wreg free
  1641                           
  1642                           ;main.c: 343: LATCbits.LATC6 = 1;
  1643  0009F6  8C8B               	bsf	3979,6,c	;volatile
  1644                           
  1645                           ;main.c: 344: DelayFor18TCY();
  1646  0009F8  ECD6  F005         	call	_DelayFor18TCY	;wreg free
  1647                           
  1648                           ;main.c: 345: LATCbits.LATC6 = 0;
  1649  0009FC  9C8B               	bcf	3979,6,c	;volatile
  1650                           
  1651                           ;main.c: 347: TRISC |= 0x0f;
  1652  0009FE  0E0F               	movlw	15
  1653  000A00  1294               	iorwf	3988,f,c	;volatile
  1654  000A02  0012               	return	
  1655                           
  1656                           ;main.c: 349: return;
  1657  000A04  0012               	return		;funcret
  1658  000A06                     __end_of_SetLCDDDRamAddr:
  1659                           	opt stack 0
  1660                           tblptru	equ	0xFF8
  1661                           tblptrh	equ	0xFF7
  1662                           tblptrl	equ	0xFF6
  1663                           tablat	equ	0xFF5
  1664                           indf0	equ	0xFEF
  1665                           fsr0h	equ	0xFEA
  1666                           fsr0l	equ	0xFE9
  1667                           indf2	equ	0xFDF
  1668                           fsr2h	equ	0xFDA
  1669                           fsr2l	equ	0xFD9
  1670                           status	equ	0xFD8
  1671                           
  1672 ;; *************** function _Delay10KTCYx *****************
  1673 ;; Defined at:
  1674 ;;		line 8 in file "C:\Program Files (x86)\Microchip\xc8\v1.34\sources\pic18\d10ktcyx.c"
  1675 ;; Parameters:    Size  Location     Type
  1676 ;;  unit            1    wreg     unsigned char 
  1677 ;; Auto vars:     Size  Location     Type
  1678 ;;  unit            1    1[COMRAM] unsigned char 
  1679 ;; Return value:  Size  Location     Type
  1680 ;;		None               void
  1681 ;; Registers used:
  1682 ;;		wreg
  1683 ;; Tracked objects:
  1684 ;;		On entry : 0/0
  1685 ;;		On exit  : 0/0
  1686 ;;		Unchanged: 0/0
  1687 ;; Data sizes:     COMRAM   BANK0   BANK1   BANK2   BANK3   BANK4   BANK5
  1688 ;;      Params:         0       0       0       0       0       0       0
  1689 ;;      Locals:         1       0       0       0       0       0       0
  1690 ;;      Temps:          1       0       0       0       0       0       0
  1691 ;;      Totals:         2       0       0       0       0       0       0
  1692 ;;Total ram usage:        2 bytes
  1693 ;; Hardware stack levels used:    1
  1694 ;; This function calls:
  1695 ;;		Nothing
  1696 ;; This function is called by:
  1697 ;;		_OpenLCD
  1698 ;; This function uses a non-reentrant model
  1699 ;;
  1700                           
  1701                           	psect	text12
  1702  000B58                     __ptext12:
  1703                           	opt stack 0
  1704  000B58                     _Delay10KTCYx:
  1705                           	opt stack 28
  1706                           
  1707                           ;incstack = 0
  1708                           ;Delay10KTCYx@unit stored from wreg
  1709  000B58  6E02               	movwf	Delay10KTCYx@unit,c
  1710  000B5A  0E0D               	movlw	13
  1711  000B5C  6E01               	movwf	??_Delay10KTCYx& (0+255),c
  1712  000B5E  0EFC               	movlw	252
  1713  000B60                     u387:
  1714  000B60  2EE8               	decfsz	wreg,f,c
  1715  000B62  D7FE               	goto	u387
  1716  000B64  2E01               	decfsz	??_Delay10KTCYx& (0+255),f,c
  1717  000B66  D7FC               	goto	u387
  1718  000B68  2E02               	decfsz	Delay10KTCYx@unit,f,c
  1719  000B6A  D7F7               	goto	l860
  1720  000B6C  0012               	return	
  1721  000B6E  0012               	return		;funcret
  1722  000B70                     __end_of_Delay10KTCYx:
  1723                           	opt stack 0
  1724                           tblptru	equ	0xFF8
  1725                           tblptrh	equ	0xFF7
  1726                           tblptrl	equ	0xFF6
  1727                           tablat	equ	0xFF5
  1728                           indf0	equ	0xFEF
  1729                           fsr0h	equ	0xFEA
  1730                           fsr0l	equ	0xFE9
  1731                           wreg	equ	0xFE8
  1732                           indf2	equ	0xFDF
  1733                           fsr2h	equ	0xFDA
  1734                           fsr2l	equ	0xFD9
  1735                           status	equ	0xFD8
  1736                           
  1737 ;; *************** function _Delay100TCYx *****************
  1738 ;; Defined at:
  1739 ;;		line 8 in file "C:\Program Files (x86)\Microchip\xc8\v1.34\sources\pic18\d100tcyx.c"
  1740 ;; Parameters:    Size  Location     Type
  1741 ;;  unit            1    wreg     unsigned char 
  1742 ;; Auto vars:     Size  Location     Type
  1743 ;;  unit            1    0[COMRAM] unsigned char 
  1744 ;; Return value:  Size  Location     Type
  1745 ;;		None               void
  1746 ;; Registers used:
  1747 ;;		wreg
  1748 ;; Tracked objects:
  1749 ;;		On entry : 0/0
  1750 ;;		On exit  : 0/0
  1751 ;;		Unchanged: 0/0
  1752 ;; Data sizes:     COMRAM   BANK0   BANK1   BANK2   BANK3   BANK4   BANK5
  1753 ;;      Params:         0       0       0       0       0       0       0
  1754 ;;      Locals:         1       0       0       0       0       0       0
  1755 ;;      Temps:          0       0       0       0       0       0       0
  1756 ;;      Totals:         1       0       0       0       0       0       0
  1757 ;;Total ram usage:        1 bytes
  1758 ;; Hardware stack levels used:    1
  1759 ;; This function calls:
  1760 ;;		Nothing
  1761 ;; This function is called by:
  1762 ;;		_OpenLCD
  1763 ;; This function uses a non-reentrant model
  1764 ;;
  1765                           
  1766                           	psect	text13
  1767  000B70                     __ptext13:
  1768                           	opt stack 0
  1769  000B70                     _Delay100TCYx:
  1770                           	opt stack 28
  1771                           
  1772                           ;incstack = 0
  1773                           ;Delay100TCYx@unit stored from wreg
  1774  000B70  6E01               	movwf	Delay100TCYx@unit,c
  1775  000B72  0E21               	movlw	33
  1776  000B74                     u397:
  1777  000B74  2EE8               	decfsz	wreg,f,c
  1778  000B76  D7FE               	goto	u397
  1779  000B78  F000               	nop	
  1780  000B7A  2E01               	decfsz	Delay100TCYx@unit,f,c
  1781  000B7C  D7FA               	goto	l856
  1782  000B7E  0012               	return	
  1783  000B80  0012               	return		;funcret
  1784  000B82                     __end_of_Delay100TCYx:
  1785                           	opt stack 0
  1786                           tblptru	equ	0xFF8
  1787                           tblptrh	equ	0xFF7
  1788                           tblptrl	equ	0xFF6
  1789                           tablat	equ	0xFF5
  1790                           indf0	equ	0xFEF
  1791                           fsr0h	equ	0xFEA
  1792                           fsr0l	equ	0xFE9
  1793                           wreg	equ	0xFE8
  1794                           indf2	equ	0xFDF
  1795                           fsr2h	equ	0xFDA
  1796                           fsr2l	equ	0xFD9
  1797                           status	equ	0xFD8
  1798                           
  1799 ;; *************** function _BusyLCD *****************
  1800 ;; Defined at:
  1801 ;;		line 294 in file "main.c"
  1802 ;; Parameters:    Size  Location     Type
  1803 ;;		None
  1804 ;; Auto vars:     Size  Location     Type
  1805 ;;		None
  1806 ;; Return value:  Size  Location     Type
  1807 ;;                  1    wreg      unsigned char 
  1808 ;; Registers used:
  1809 ;;		wreg, cstack
  1810 ;; Tracked objects:
  1811 ;;		On entry : 0/0
  1812 ;;		On exit  : 0/0
  1813 ;;		Unchanged: 0/0
  1814 ;; Data sizes:     COMRAM   BANK0   BANK1   BANK2   BANK3   BANK4   BANK5
  1815 ;;      Params:         0       0       0       0       0       0       0
  1816 ;;      Locals:         0       0       0       0       0       0       0
  1817 ;;      Temps:          0       0       0       0       0       0       0
  1818 ;;      Totals:         0       0       0       0       0       0       0
  1819 ;;Total ram usage:        0 bytes
  1820 ;; Hardware stack levels used:    1
  1821 ;; Hardware stack levels required when called:    2
  1822 ;; This function calls:
  1823 ;;		_DelayFor18TCY
  1824 ;; This function is called by:
  1825 ;;		_InitLCD
  1826 ;;		_OpenLCD
  1827 ;;		_putLCD
  1828 ;; This function uses a non-reentrant model
  1829 ;;
  1830                           
  1831                           	psect	text14
  1832  000AD2                     __ptext14:
  1833                           	opt stack 0
  1834  000AD2                     _BusyLCD:
  1835                           	opt stack 27
  1836                           
  1837                           ;main.c: 296: LATCbits.LATC5 = 1;
  1838                           
  1839                           ;incstack = 0
  1840  000AD2  8A8B               	bsf	3979,5,c	;volatile
  1841                           
  1842                           ;main.c: 297: LATCbits.LATC4 = 0;
  1843  000AD4  988B               	bcf	3979,4,c	;volatile
  1844                           
  1845                           ;main.c: 298: DelayFor18TCY();
  1846  000AD6  ECD6  F005         	call	_DelayFor18TCY	;wreg free
  1847                           
  1848                           ;main.c: 299: LATCbits.LATC6 = 1;
  1849  000ADA  8C8B               	bsf	3979,6,c	;volatile
  1850                           
  1851                           ;main.c: 300: DelayFor18TCY();
  1852  000ADC  ECD6  F005         	call	_DelayFor18TCY	;wreg free
  1853                           
  1854                           ;main.c: 302: if(PORTC&0x08)
  1855  000AE0  A682               	btfss	3970,3,c	;volatile
  1856  000AE2  D00A               	goto	l89
  1857                           
  1858                           ;main.c: 303: {
  1859                           ;main.c: 304: LATCbits.LATC6 = 0;
  1860  000AE4  9C8B               	bcf	3979,6,c	;volatile
  1861                           
  1862                           ;main.c: 305: DelayFor18TCY();
  1863  000AE6  ECD6  F005         	call	_DelayFor18TCY	;wreg free
  1864                           
  1865                           ;main.c: 306: LATCbits.LATC6 = 1;
  1866  000AEA  8C8B               	bsf	3979,6,c	;volatile
  1867                           
  1868                           ;main.c: 307: DelayFor18TCY();
  1869  000AEC  ECD6  F005         	call	_DelayFor18TCY	;wreg free
  1870                           
  1871                           ;main.c: 308: LATCbits.LATC6 = 0;
  1872  000AF0  9C8B               	bcf	3979,6,c	;volatile
  1873                           
  1874                           ;main.c: 309: LATCbits.LATC5 = 0;
  1875  000AF2  9A8B               	bcf	3979,5,c	;volatile
  1876                           
  1877                           ;main.c: 310: return 1;
  1878  000AF4  0E01               	movlw	1
  1879                           
  1880                           ;main.c: 311: }
  1881  000AF6  0012               	return	
  1882  000AF8                     l89:
  1883                           
  1884                           ;main.c: 312: else
  1885                           ;main.c: 313: {
  1886                           ;main.c: 314: LATCbits.LATC6 = 0;
  1887  000AF8  9C8B               	bcf	3979,6,c	;volatile
  1888                           
  1889                           ;main.c: 315: DelayFor18TCY();
  1890  000AFA  ECD6  F005         	call	_DelayFor18TCY	;wreg free
  1891                           
  1892                           ;main.c: 316: LATCbits.LATC6 = 1;
  1893  000AFE  8C8B               	bsf	3979,6,c	;volatile
  1894                           
  1895                           ;main.c: 317: DelayFor18TCY();
  1896  000B00  ECD6  F005         	call	_DelayFor18TCY	;wreg free
  1897                           
  1898                           ;main.c: 318: LATCbits.LATC6 = 0;
  1899  000B04  9C8B               	bcf	3979,6,c	;volatile
  1900                           
  1901                           ;main.c: 319: LATCbits.LATC5 = 0;
  1902  000B06  9A8B               	bcf	3979,5,c	;volatile
  1903                           
  1904                           ;main.c: 320: return 0;
  1905  000B08  0E00               	movlw	0
  1906  000B0A  0012               	return	
  1907  000B0C  0012               	return		;funcret
  1908  000B0E                     __end_of_BusyLCD:
  1909                           	opt stack 0
  1910                           tblptru	equ	0xFF8
  1911                           tblptrh	equ	0xFF7
  1912                           tblptrl	equ	0xFF6
  1913                           tablat	equ	0xFF5
  1914                           indf0	equ	0xFEF
  1915                           fsr0h	equ	0xFEA
  1916                           fsr0l	equ	0xFE9
  1917                           wreg	equ	0xFE8
  1918                           indf2	equ	0xFDF
  1919                           fsr2h	equ	0xFDA
  1920                           fsr2l	equ	0xFD9
  1921                           status	equ	0xFD8
  1922                           
  1923 ;; *************** function _DelayFor18TCY *****************
  1924 ;; Defined at:
  1925 ;;		line 206 in file "main.c"
  1926 ;; Parameters:    Size  Location     Type
  1927 ;;		None
  1928 ;; Auto vars:     Size  Location     Type
  1929 ;;		None
  1930 ;; Return value:  Size  Location     Type
  1931 ;;		None               void
  1932 ;; Registers used:
  1933 ;;		wreg, cstack
  1934 ;; Tracked objects:
  1935 ;;		On entry : 0/0
  1936 ;;		On exit  : 0/0
  1937 ;;		Unchanged: 0/0
  1938 ;; Data sizes:     COMRAM   BANK0   BANK1   BANK2   BANK3   BANK4   BANK5
  1939 ;;      Params:         0       0       0       0       0       0       0
  1940 ;;      Locals:         0       0       0       0       0       0       0
  1941 ;;      Temps:          0       0       0       0       0       0       0
  1942 ;;      Totals:         0       0       0       0       0       0       0
  1943 ;;Total ram usage:        0 bytes
  1944 ;; Hardware stack levels used:    1
  1945 ;; Hardware stack levels required when called:    1
  1946 ;; This function calls:
  1947 ;;		_Delay1TCYx
  1948 ;; This function is called by:
  1949 ;;		_WriteCmdLCD
  1950 ;;		_BusyLCD
  1951 ;;		_SetLCDDDRamAddr
  1952 ;;		_SetLCDCGRamAddr
  1953 ;;		_WriteDataLCD
  1954 ;; This function uses a non-reentrant model
  1955 ;;
  1956                           
  1957                           	psect	text15
  1958  000BAC                     __ptext15:
  1959                           	opt stack 0
  1960  000BAC                     _DelayFor18TCY:
  1961                           	opt stack 27
  1962                           
  1963                           ;main.c: 208: Delay1TCYx(18);
  1964                           
  1965                           ;incstack = 0
  1966  000BAC  0E12               	movlw	18
  1967  000BAE  ECD0  F005         	call	_Delay1TCYx
  1968  000BB2  0012               	return		;funcret
  1969  000BB4                     __end_of_DelayFor18TCY:
  1970                           	opt stack 0
  1971                           tblptru	equ	0xFF8
  1972                           tblptrh	equ	0xFF7
  1973                           tblptrl	equ	0xFF6
  1974                           tablat	equ	0xFF5
  1975                           indf0	equ	0xFEF
  1976                           fsr0h	equ	0xFEA
  1977                           fsr0l	equ	0xFE9
  1978                           wreg	equ	0xFE8
  1979                           indf2	equ	0xFDF
  1980                           fsr2h	equ	0xFDA
  1981                           fsr2l	equ	0xFD9
  1982                           status	equ	0xFD8
  1983                           
  1984 ;; *************** function _Delay1TCYx *****************
  1985 ;; Defined at:
  1986 ;;		line 4 in file "C:\Program Files (x86)\Microchip\xc8\v1.34\sources\pic18\d1tcyx.c"
  1987 ;; Parameters:    Size  Location     Type
  1988 ;;  unit            1    wreg     unsigned char 
  1989 ;; Auto vars:     Size  Location     Type
  1990 ;;  unit            1    0[COMRAM] unsigned char 
  1991 ;; Return value:  Size  Location     Type
  1992 ;;		None               void
  1993 ;; Registers used:
  1994 ;;		wreg
  1995 ;; Tracked objects:
  1996 ;;		On entry : 0/0
  1997 ;;		On exit  : 0/0
  1998 ;;		Unchanged: 0/0
  1999 ;; Data sizes:     COMRAM   BANK0   BANK1   BANK2   BANK3   BANK4   BANK5
  2000 ;;      Params:         0       0       0       0       0       0       0
  2001 ;;      Locals:         1       0       0       0       0       0       0
  2002 ;;      Temps:          0       0       0       0       0       0       0
  2003 ;;      Totals:         1       0       0       0       0       0       0
  2004 ;;Total ram usage:        1 bytes
  2005 ;; Hardware stack levels used:    1
  2006 ;; This function calls:
  2007 ;;		Nothing
  2008 ;; This function is called by:
  2009 ;;		_DelayFor18TCY
  2010 ;; This function uses a non-reentrant model
  2011 ;;
  2012                           
  2013                           	psect	text16
  2014  000BA0                     __ptext16:
  2015                           	opt stack 0
  2016  000BA0                     _Delay1TCYx:
  2017                           	opt stack 27
  2018                           
  2019                           ;incstack = 0
  2020                           ;Delay1TCYx@unit stored from wreg
  2021  000BA0  6E01               	movwf	Delay1TCYx@unit,c
  2022  000BA2                     l359:
  2023  000BA2  F000               	nop	
  2024  000BA4  2E01               	decfsz	Delay1TCYx@unit,f,c
  2025  000BA6  D7FD               	goto	l359
  2026  000BA8  0012               	return	
  2027  000BAA  0012               	return		;funcret
  2028  000BAC                     __end_of_Delay1TCYx:
  2029                           	opt stack 0
  2030                           tblptru	equ	0xFF8
  2031                           tblptrh	equ	0xFF7
  2032                           tblptrl	equ	0xFF6
  2033                           tablat	equ	0xFF5
  2034                           indf0	equ	0xFEF
  2035                           fsr0h	equ	0xFEA
  2036                           fsr0l	equ	0xFE9
  2037                           wreg	equ	0xFE8
  2038                           indf2	equ	0xFDF
  2039                           fsr2h	equ	0xFDA
  2040                           fsr2l	equ	0xFD9
  2041                           status	equ	0xFD8
  2042                           
  2043 ;; *************** function _Delay1KTCYx *****************
  2044 ;; Defined at:
  2045 ;;		line 8 in file "C:\Program Files (x86)\Microchip\xc8\v1.34\sources\pic18\d1ktcyx.c"
  2046 ;; Parameters:    Size  Location     Type
  2047 ;;  unit            1    wreg     unsigned char 
  2048 ;; Auto vars:     Size  Location     Type
  2049 ;;  unit            1    0[COMRAM] unsigned char 
  2050 ;; Return value:  Size  Location     Type
  2051 ;;		None               void
  2052 ;; Registers used:
  2053 ;;		wreg
  2054 ;; Tracked objects:
  2055 ;;		On entry : 0/0
  2056 ;;		On exit  : 0/0
  2057 ;;		Unchanged: 0/0
  2058 ;; Data sizes:     COMRAM   BANK0   BANK1   BANK2   BANK3   BANK4   BANK5
  2059 ;;      Params:         0       0       0       0       0       0       0
  2060 ;;      Locals:         1       0       0       0       0       0       0
  2061 ;;      Temps:          0       0       0       0       0       0       0
  2062 ;;      Totals:         1       0       0       0       0       0       0
  2063 ;;Total ram usage:        1 bytes
  2064 ;; Hardware stack levels used:    1
  2065 ;; This function calls:
  2066 ;;		Nothing
  2067 ;; This function is called by:
  2068 ;;		_main
  2069 ;; This function uses a non-reentrant model
  2070 ;;
  2071                           
  2072                           	psect	text17
  2073  000B82                     __ptext17:
  2074                           	opt stack 0
  2075  000B82                     _Delay1KTCYx:
  2076                           	opt stack 30
  2077                           
  2078                           ;incstack = 0
  2079                           ;Delay1KTCYx@unit stored from wreg
  2080  000B82  6E01               	movwf	Delay1KTCYx@unit,c
  2081  000B84  0EFA               	movlw	250
  2082  000B86                     u407:
  2083  000B86  F000               	nop	
  2084  000B88  2EE8               	decfsz	wreg,f,c
  2085  000B8A  D7FD               	goto	u407
  2086  000B8C  2E01               	decfsz	Delay1KTCYx@unit,f,c
  2087  000B8E  D7FA               	goto	l1016
  2088  000B90  0012               	return	
  2089  000B92  0012               	return		;funcret
  2090  000B94                     __end_of_Delay1KTCYx:
  2091                           	opt stack 0
  2092                           tblptru	equ	0xFF8
  2093                           tblptrh	equ	0xFF7
  2094                           tblptrl	equ	0xFF6
  2095                           tablat	equ	0xFF5
  2096                           indf0	equ	0xFEF
  2097                           fsr0h	equ	0xFEA
  2098                           fsr0l	equ	0xFE9
  2099                           wreg	equ	0xFE8
  2100                           indf2	equ	0xFDF
  2101                           fsr2h	equ	0xFDA
  2102                           fsr2l	equ	0xFD9
  2103                           status	equ	0xFD8
  2104                           tblptru	equ	0xFF8
  2105                           tblptrh	equ	0xFF7
  2106                           tblptrl	equ	0xFF6
  2107                           tablat	equ	0xFF5
  2108                           indf0	equ	0xFEF
  2109                           fsr0h	equ	0xFEA
  2110                           fsr0l	equ	0xFE9
  2111                           wreg	equ	0xFE8
  2112                           indf2	equ	0xFDF
  2113                           fsr2h	equ	0xFDA
  2114                           fsr2l	equ	0xFD9
  2115                           status	equ	0xFD8
  2116                           
  2117                           	psect	rparam
  2118  0000                     tblptru	equ	0xFF8
  2119                           tblptrh	equ	0xFF7
  2120                           tblptrl	equ	0xFF6
  2121                           tablat	equ	0xFF5
  2122                           indf0	equ	0xFEF
  2123                           fsr0h	equ	0xFEA
  2124                           fsr0l	equ	0xFE9
  2125                           wreg	equ	0xFE8
  2126                           indf2	equ	0xFDF
  2127                           fsr2h	equ	0xFDA
  2128                           fsr2l	equ	0xFD9
  2129                           status	equ	0xFD8


Data Sizes:
    Strings     21
    Constant    0
    Data        0
    BSS         1
    Persistent  0
    Stack       0

Auto Spaces:
    Space          Size  Autos    Used
    COMRAM           95     22      23
    BANK0           160      0       0
    BANK1           256      0       0
    BANK2           256      0       0
    BANK3           256      0       0
    BANK4           256      0       0
    BANK5           256      0       0

Pointer List with Targets:

    utoa@buf	PTR unsigned char  size(2) Largest target is 4
		 -> putIntLCD@result(COMRAM[4]), 

    sp__itoa	PTR unsigned char  size(2) Largest target is 0

    putLCD@buffer	PTR unsigned char  size(2) Largest target is 12
		 -> putIntLCD@result(COMRAM[4]), STR_2(CODE[12]), STR_1(CODE[9]), 

    sp__utoa	PTR unsigned char  size(2) Largest target is 4
		 -> putIntLCD@result(COMRAM[4]), 


Critical Paths under _main in COMRAM

    _main->_putIntLCD
    _putIntLCD->_utoa
    _utoa->___lwdiv
    _putLCD->_WriteDataLCD
    _InitLCD->_OpenLCD
    _OpenLCD->_SetLCDDDRamAddr
    _DelayFor18TCY->_Delay1TCYx

Critical Paths under _main in BANK0

    None.

Critical Paths under _main in BANK1

    None.

Critical Paths under _main in BANK2

    None.

Critical Paths under _main in BANK3

    None.

Critical Paths under _main in BANK4

    None.

Critical Paths under _main in BANK5

    None.

Call Graph Tables:

 ---------------------------------------------------------------------------------
 (Depth) Function   	        Calls       Base Space   Used Autos Params    Refs
 ---------------------------------------------------------------------------------
 (0) _main                                                 0     0      0    2331
                        _Delay1KTCYx
                            _InitLCD
                    _SetLCDCGRamAddr
                    _SetLCDDDRamAddr
                        _WriteCmdLCD
                       _WriteDataLCD
                          _putIntLCD
                             _putLCD
 ---------------------------------------------------------------------------------
 (1) _putIntLCD                                            6     4      2    1662
                                             16 COMRAM     6     4      2
                             _putLCD
                               _utoa
 ---------------------------------------------------------------------------------
 (2) _utoa                                                 9     3      6    1220
                                              7 COMRAM     9     3      6
                            ___lwdiv
                            ___lwmod
 ---------------------------------------------------------------------------------
 (3) ___lwmod                                              5     1      4     265
                                              0 COMRAM     5     1      4
 ---------------------------------------------------------------------------------
 (3) ___lwdiv                                              7     3      4     374
                                              0 COMRAM     7     3      4
 ---------------------------------------------------------------------------------
 (1) _putLCD                                               2     0      2     264
                                              2 COMRAM     2     0      2
                            _BusyLCD
                       _WriteDataLCD
 ---------------------------------------------------------------------------------
 (2) _WriteDataLCD                                         1     1      0      45
                                              1 COMRAM     1     1      0
                      _DelayFor18TCY
 ---------------------------------------------------------------------------------
 (1) _SetLCDCGRamAddr                                      4     4      0      45
                                              1 COMRAM     4     4      0
                      _DelayFor18TCY
 ---------------------------------------------------------------------------------
 (1) _InitLCD                                              0     0      0     210
                            _BusyLCD
                            _OpenLCD
                        _WriteCmdLCD
 ---------------------------------------------------------------------------------
 (2) _OpenLCD                                              1     1      0     150
                                              5 COMRAM     1     1      0
                            _BusyLCD
                       _Delay100TCYx
                       _Delay10KTCYx
                    _SetLCDDDRamAddr
                        _WriteCmdLCD
 ---------------------------------------------------------------------------------
 (1) _WriteCmdLCD                                          1     1      0      45
                                              1 COMRAM     1     1      0
                      _DelayFor18TCY
 ---------------------------------------------------------------------------------
 (1) _SetLCDDDRamAddr                                      4     4      0      45
                                              1 COMRAM     4     4      0
                      _DelayFor18TCY
 ---------------------------------------------------------------------------------
 (3) _Delay10KTCYx                                         2     2      0      15
                                              0 COMRAM     2     2      0
 ---------------------------------------------------------------------------------
 (3) _Delay100TCYx                                         1     1      0      15
                                              0 COMRAM     1     1      0
 ---------------------------------------------------------------------------------
 (2) _BusyLCD                                              0     0      0      15
                      _DelayFor18TCY
 ---------------------------------------------------------------------------------
 (3) _DelayFor18TCY                                        0     0      0      15
                         _Delay1TCYx
 ---------------------------------------------------------------------------------
 (4) _Delay1TCYx                                           1     1      0      15
                                              0 COMRAM     1     1      0
 ---------------------------------------------------------------------------------
 (1) _Delay1KTCYx                                          1     1      0      15
                                              0 COMRAM     1     1      0
 ---------------------------------------------------------------------------------
 Estimated maximum stack depth 4
 ---------------------------------------------------------------------------------

 Call Graph Graphs:

 _main (ROOT)
   _Delay1KTCYx
   _InitLCD
     _BusyLCD
       _DelayFor18TCY
         _Delay1TCYx
     _OpenLCD
       _BusyLCD
         _DelayFor18TCY
           _Delay1TCYx
       _Delay100TCYx
       _Delay10KTCYx
       _SetLCDDDRamAddr
         _DelayFor18TCY
           _Delay1TCYx
       _WriteCmdLCD
         _DelayFor18TCY
           _Delay1TCYx
     _WriteCmdLCD
       _DelayFor18TCY
         _Delay1TCYx
   _SetLCDCGRamAddr
     _DelayFor18TCY
       _Delay1TCYx
   _SetLCDDDRamAddr
     _DelayFor18TCY
       _Delay1TCYx
   _WriteCmdLCD
     _DelayFor18TCY
       _Delay1TCYx
   _WriteDataLCD
     _DelayFor18TCY
       _Delay1TCYx
   _putIntLCD
     _putLCD
       _BusyLCD
         _DelayFor18TCY
           _Delay1TCYx
       _WriteDataLCD
         _DelayFor18TCY
           _Delay1TCYx
     _utoa
       ___lwdiv
       ___lwmod
   _putLCD
     _BusyLCD
       _DelayFor18TCY
         _Delay1TCYx
     _WriteDataLCD
       _DelayFor18TCY
         _Delay1TCYx

 Address spaces:
Name               Size   Autos  Total    Cost      Usage
BIGRAM             5FF      0       0      17        0.0%
EEDATA             100      0       0       0        0.0%
BITBANK5           100      0       0      16        0.0%
BANK5              100      0       0      14        0.0%
BITBANK4           100      0       0      12        0.0%
BANK4              100      0       0      13        0.0%
BITBANK3           100      0       0      10        0.0%
BANK3              100      0       0      11        0.0%
BITBANK2           100      0       0       8        0.0%
BANK2              100      0       0       9        0.0%
BITBANK1           100      0       0       6        0.0%
BANK1              100      0       0       7        0.0%
BITBANK0            A0      0       0       4        0.0%
BANK0               A0      0       0       5        0.0%
BITCOMRAM           5F      0       0       0        0.0%
COMRAM              5F     16      17       1       24.2%
BITSFR               0      0       0      40        0.0%
SFR                  0      0       0      40        0.0%
STACK                0      0       0       2        0.0%
NULL                 0      0       0       0        0.0%
ABS                  0      0      17      15        0.0%
DATA                 0      0      17       3        0.0%
CODE                 0      0       0       0        0.0%


Microchip Technology PIC18 Macro Assembler V1.34 build -361300703 
Symbol Table                                                                                   Mon Apr 20 20:03:09 2015

                      l89 0AF8                        u15 09C8      __size_of_WriteCmdLCD 0040  
            __CFG_CP0$OFF 000000              __CFG_CP1$OFF 000000              __CFG_CP2$OFF 000000  
            __CFG_CP3$OFF 000000                       l359 0BA2                       l581 0876  
                     l930 0796                       l675 094E                       l860 0B5A  
                     l924 0776                       l685 0A48                       l942 07CC  
                     l934 07A8                       l926 0784                       l856 0B72  
                     l946 07DE                       l938 07BA                       l984 0B40  
            __CFG_CPB$OFF 000000                       u320 08CA                       u330 08F4  
                     u245 0974                       u407 0B86                       u327 08C0  
                     u337 08EA              __CFG_CPD$OFF 000000                       u387 0B60  
                     u397 0B74              __CFG_BORV$30 000000     __size_of_WriteDataLCD 0040  
                     wreg 000FE8              __CFG_LVP$OFF 000000                _Delay1TCYx 0BA0  
                    l1016 0B84                      l1130 091C                      l1140 0942  
                    l1132 0924                      l1150 0A1E                      l1128 0912  
                    l1152 0A26                      l1162 08A0                      l1156 0A3C  
                    l1148 0A14                      l1172 07FC                      l1182 0838  
                    l1168 08D4                      l1264 06DE                      STR_1 060D  
                    STR_2 0601                      _LATD 000F8C                      _main 0618  
   SetLCDDDRamAddr@DDaddr 0005                      fsr0h 000FEA                      indf0 000FEF  
                    fsr0l 000FE9                      fsr2h 000FDA                      indf2 000FDF  
                    fsr2l 000FD9                      _utoa 07F2                      start 0000  
           __CFG_IESO$OFF 000000              ___param_bank 000010           __end_of_BusyLCD 0B0E  
         __end_of_InitLCD 0B58           __end_of_OpenLCD 07F2              _WriteDataLCD 0A52  
             _Delay1KTCYx 0B82                     ?_main 0001     __size_of_Delay100TCYx 0012  
                   ?_utoa 0008           __end_of___lwdiv 0958           __end_of___lwmod 0A52  
                   _PORTC 000F82                     _TRISC 000F94                     _TRISD 000F95  
   __size_of_Delay10KTCYx 0018             __CFG_PWRT$OFF 000000             __CFG_WRT0$OFF 000000  
           __CFG_WRT1$OFF 000000             __CFG_WRT2$OFF 000000             __CFG_WRT3$OFF 000000  
          __CFG_EBTR0$OFF 000000            __CFG_FCMEN$OFF 000000            __CFG_EBTR1$OFF 000000  
          __CFG_EBTR2$OFF 000000            __CFG_EBTR3$OFF 000000             __CFG_WRTB$OFF 000000  
           __CFG_WRTC$OFF 000000             __CFG_WRTD$OFF 000000            __CFG_EBTRB$OFF 000000  
                   tablat 000FF5                     utoa@c 0010                     utoa@v 000E  
                   status 000FD8            __CFG_PBADEN$ON 000000         ??_SetLCDDDRamAddr 0002  
          __CFG_MCLRE$OFF 000000         ??_SetLCDCGRamAddr 0002           __initialization 0B94  
            _Delay100TCYx 0B70              __end_of_main 0742              __end_of_utoa 089C  
          WriteCmdLCD@cmd 0002              _Delay10KTCYx 0B58                    ??_main 0017  
                  ??_utoa 000E             __activetblptr 000002               ?_Delay1TCYx 0001  
          __CFG_WDTEN$OFF 000000                 ??_BusyLCD 0002                 ??_InitLCD 0007  
               ??_OpenLCD 0006            __CFG_XINST$OFF 000000            __CFG_STVREN$ON 000000  
               ??___lwdiv 0005                 ??___lwmod 0005                    _putLCD 089C  
            __mediumconst 0000                    tblptrh 000FF7                    tblptrl 000FF6  
                  tblptru 000FF8                __accesstop 0060   __end_of__initialization 0B96  
           ___rparam_used 000001            __pcstackCOMRAM 0001       __size_of_Delay1TCYx 000C  
         __CFG_LPT1OSC$ON 000000    __size_of_DelayFor18TCY 0008     SetLCDCGRamAddr@CGaddr 0005  
           ??_WriteCmdLCD 0002              ?_Delay1KTCYx 0001                   ?_putLCD 0003  
      __size_of_putIntLCD 002A           _SetLCDDDRamAddr 09B2           _SetLCDCGRamAddr 0958  
                 _BusyLCD 0AD2                   _InitLCD 0B38                   _OpenLCD 0742  
                 __Hparam 0000                   __Lparam 0000             _DelayFor18TCY 0BAC  
                 ___lwdiv 08FC                   ___lwmod 0A06              __psmallconst 0600  
                 __pcinit 0B94                   __ramtop 0600           __size_of_putLCD 0060  
                 __ptext0 0618                   __ptext1 0B0E                   __ptext2 07F2  
                 __ptext3 0A06                   __ptext4 08FC                   __ptext5 089C  
                 __ptext6 0A52                   __ptext7 0958                   __ptext8 0B38  
                 __ptext9 0742       __end_of_WriteCmdLCD 0AD2                   _counter 0017  
            ??_Delay1TCYx 0001      end_of_initialization 0B96             __Lmediumconst 0000  
       __end_of_putIntLCD 0B38            ?_DelayFor18TCY 0001                   utoa@buf 0008  
                 utoa@val 000A        __end_of_Delay1TCYx 0BAC   __end_of_SetLCDDDRamAddr 0A06  
 __end_of_SetLCDCGRamAddr 09B2                 _TRISCbits 000F94          Delay100TCYx@unit 0001  
             _WriteCmdLCD 0A92      __size_of_Delay1KTCYx 0012            __end_of_putLCD 08FC  
     start_initialization 0B94           ??_DelayFor18TCY 0002             ?_WriteDataLCD 0001  
                ??_putLCD 0005            OpenLCD@lcdtype 0006          ?_SetLCDDDRamAddr 0001  
        ?_SetLCDCGRamAddr 0001               __pbssCOMRAM 0017          WriteDataLCD@data 0002  
         Delay1KTCYx@unit 0001                  ?_BusyLCD 0001                  ?_InitLCD 0001  
                ?_OpenLCD 0001          ___lwdiv@dividend 0001         __CFG_CCP2MX$PORTC 000000  
           ?_Delay100TCYx 0001            ??_WriteDataLCD 0002             ?_Delay10KTCYx 0001  
                ?___lwdiv 0001                  ?___lwmod 0001               __smallconst 0600  
        ___lwdiv@quotient 0005                  _LATCbits 000F8B                  _LATDbits 000F8C  
          ??_Delay100TCYx 0001          __CFG_WDTPS$32768 000000            ??_Delay10KTCYx 0001  
               _putIntLCD 0B0E                putIntLCD@n 0011              putLCD@buffer 0003  
        Delay10KTCYx@unit 0002          __size_of_BusyLCD 003C          __size_of_InitLCD 0020  
                __Hrparam 0000          __size_of_OpenLCD 00B0                  __Lrparam 0000  
      __CFG_BOREN$SBORDIS 000000              ?_WriteCmdLCD 0001                ?_putIntLCD 0011  
        __size_of___lwdiv 005C          __size_of___lwmod 004C           ___lwdiv@divisor 0003  
         ___lwdiv@counter 0007                  __ptext10 0A92                  __ptext11 09B2  
                __ptext12 0B58                  __ptext13 0B70                  __ptext14 0AD2  
                __ptext15 0BAC                  __ptext16 0BA0                  __ptext17 0B82  
    __end_of_WriteDataLCD 0A92             __size_of_main 012A             __size_of_utoa 00AA  
          Delay1TCYx@unit 0001             ??_Delay1KTCYx 0001      __end_of_Delay100TCYx 0B82  
    __end_of_Delay10KTCYx 0B70          ___lwmod@dividend 0001     __end_of_DelayFor18TCY 0BB4  
             ??_putIntLCD 0013           putIntLCD@result 0013                  utoa@base 000C  
         ___lwmod@divisor 0003       __end_of_Delay1KTCYx 0B94           ___lwmod@counter 0005  
__size_of_SetLCDDDRamAddr 0054  __size_of_SetLCDCGRamAddr 005A         __CFG_FOSC$INTIO67 000000  
