

Microchip Technology PIC18 LITE Macro Assembler V1.34 build -361300703 
                                                                                               Tue Apr 14 10:30:04 2015

Microchip Technology Omniscient Code Generator (Lite mode) build 201502162209
     1                           	processor	18F45K20
     2                           	fnconf	rparam,??,?,0
     3                           	opt	pw 120
     4                           	opt	lm
     5                           	psect	smallconst,global,reloc=2,class=SMALLCONST,delta=1
     6                           	psect	cinit,global,reloc=2,class=CODE,delta=1
     7                           	psect	cstackCOMRAM,global,class=COMRAM,space=1,delta=1
     8                           	psect	text0,global,reloc=2,class=CODE,delta=1
     9                           	psect	text1,global,reloc=2,class=CODE,delta=1
    10                           	psect	text2,global,reloc=2,class=CODE,delta=1
    11                           	psect	text3,global,reloc=2,class=CODE,delta=1
    12                           	psect	text4,global,reloc=2,class=CODE,delta=1
    13                           	psect	text5,global,reloc=2,class=CODE,delta=1
    14                           	psect	text6,global,reloc=2,class=CODE,delta=1
    15                           	psect	text7,global,reloc=2,class=CODE,delta=1
    16                           	psect	text8,global,reloc=2,class=CODE,delta=1
    17                           	psect	text9,global,reloc=2,class=CODE,delta=1
    18                           	psect	text10,global,reloc=2,class=CODE,delta=1
    19                           	psect	text11,global,reloc=2,class=CODE,delta=1
    20                           	psect	text12,global,reloc=2,class=CODE,delta=1
    21                           	psect	text13,global,reloc=2,class=CODE,delta=1
    22                           	psect	intsave_regs,global,class=BIGRAM,space=1,delta=1
    23                           	psect	rparam,global,class=COMRAM,space=1,delta=1
    24  0000                     _LATCbits	set	3979
    25  0000                     _LATD	set	3980
    26  0000                     _LATDbits	set	3980
    27  0000                     _PORTC	set	3970
    28  0000                     _TRISC	set	3988
    29  0000                     _TRISCbits	set	3988
    30  0000                     _TRISD	set	3989
    31                           
    32                           	psect	smallconst
    33  000600                     __psmallconst:
    34                           	opt stack 0
    35  000600  00                 	db	0
    36  000601                     STR_1:
    37  000601  48                 	db	72	;'H'
    38  000602  65                 	db	101	;'e'
    39  000603  6C                 	db	108	;'l'
    40  000604  6C                 	db	108	;'l'
    41  000605  6F                 	db	111	;'o'
    42  000606  20                 	db	32
    43  000607  57                 	db	87	;'W'
    44  000608  6F                 	db	111	;'o'
    45  000609  72                 	db	114	;'r'
    46  00060A  6C                 	db	108	;'l'
    47  00060B  64                 	db	100	;'d'
    48  00060C  39                 	db	57	;'9'
    49  00060D  00                 	db	0
    50  00060E                     STR_2:
    51  00060E  4C                 	db	76	;'L'
    52  00060F  43                 	db	67	;'C'
    53  000610  44                 	db	68	;'D'
    54  000611  20                 	db	32
    55  000612  44                 	db	68	;'D'
    56  000613  6F                 	db	111	;'o'
    57  000614  77                 	db	119	;'w'
    58  000615  6E                 	db	110	;'n'
    59  000616  00                 	db	0
    60                           
    61                           ; #config settings
    62  000617  00                 	db	0	; dummy byte at the end
    63  0000                     
    64                           	psect	cinit
    65  0009AC                     __pcinit:
    66                           	opt stack 0
    67  0009AC                     start_initialization:
    68                           	opt stack 0
    69  0009AC                     __initialization:
    70                           	opt stack 0
    71  0009AC                     end_of_initialization:
    72                           	opt stack 0
    73  0009AC                     __end_of__initialization:
    74                           	opt stack 0
    75  0009AC  0E00               	movlw	low (__Lsmallconst shr (0+16))
    76  0009AE  6EF8               	movwf	tblptru,c
    77  0009B0  0E06               	movlw	high __Lsmallconst
    78  0009B2  6EF7               	movwf	tblptrh,c
    79  0009B4  0100               	movlb	0
    80  0009B6  EF0C  F003         	goto	_main	;jump to C main() function
    81                           tblptru	equ	0xFF8
    82                           tblptrh	equ	0xFF7
    83                           
    84                           	psect	cstackCOMRAM
    85  000001                     __pcstackCOMRAM:
    86                           	opt stack 0
    87  000001                     ??_Delay10KTCYx:
    88  000001                     Delay1KTCYx@unit:
    89                           	opt stack 0
    90  000001                     Delay1TCYx@unit:
    91                           	opt stack 0
    92                           
    93                           ; 1 bytes @ 0x0
    94  000001                     	ds	1
    95  000002                     ??_SetLCDCGRamAddr:
    96  000002                     ??_SetLCDDDRamAddr:
    97  000002                     WriteCmdLCD@cmd:
    98                           	opt stack 0
    99  000002                     WriteDataLCD@data:
   100                           	opt stack 0
   101  000002                     Delay10KTCYx@unit:
   102                           	opt stack 0
   103                           
   104                           ; 1 bytes @ 0x1
   105  000002                     	ds	1
   106  000003                     putLCD@buffer:
   107                           	opt stack 0
   108                           
   109                           ; 2 bytes @ 0x2
   110  000003                     	ds	2
   111  000005                     SetLCDDDRamAddr@DDaddr:
   112                           	opt stack 0
   113  000005                     SetLCDCGRamAddr@CGaddr:
   114                           	opt stack 0
   115                           
   116                           ; 1 bytes @ 0x4
   117  000005                     	ds	1
   118  000006                     OpenLCD@lcdtype:
   119                           	opt stack 0
   120                           
   121                           ; 1 bytes @ 0x5
   122  000006                     	ds	1
   123  000007                     tblptru	equ	0xFF8
   124                           tblptrh	equ	0xFF7
   125                           
   126                           ; 0 bytes @ 0x6
   127 ;;
   128 ;;Main: autosize = 0, tempsize = 0, incstack = 0, save=0
   129 ;;
   130 ;; *************** function _main *****************
   131 ;; Defined at:
   132 ;;		line 108 in file "main.c"
   133 ;; Parameters:    Size  Location     Type
   134 ;;		None
   135 ;; Auto vars:     Size  Location     Type
   136 ;;		None
   137 ;; Return value:  Size  Location     Type
   138 ;;		None               void
   139 ;; Registers used:
   140 ;;		wreg, status,2, status,0, tblptrl, tblptrh, tblptru, cstack
   141 ;; Tracked objects:
   142 ;;		On entry : 0/0
   143 ;;		On exit  : 0/0
   144 ;;		Unchanged: 0/0
   145 ;; Data sizes:     COMRAM   BANK0   BANK1   BANK2   BANK3   BANK4   BANK5
   146 ;;      Params:         0       0       0       0       0       0       0
   147 ;;      Locals:         0       0       0       0       0       0       0
   148 ;;      Temps:          0       0       0       0       0       0       0
   149 ;;      Totals:         0       0       0       0       0       0       0
   150 ;;Total ram usage:        0 bytes
   151 ;; Hardware stack levels required when called:    5
   152 ;; This function calls:
   153 ;;		_Delay1KTCYx
   154 ;;		_InitLCD
   155 ;;		_SetLCDCGRamAddr
   156 ;;		_SetLCDDDRamAddr
   157 ;;		_WriteCmdLCD
   158 ;;		_WriteDataLCD
   159 ;;		_putLCD
   160 ;; This function is called by:
   161 ;;		Startup code after reset
   162 ;; This function uses a non-reentrant model
   163 ;;
   164                           
   165                           	psect	text0
   166  000618                     __ptext0:
   167                           	opt stack 0
   168  000618                     _main:
   169                           	opt stack 26
   170                           
   171                           ;main.c: 110: TRISD = 0b00000000;
   172                           
   173                           ;incstack = 0
   174  000618  0E00               	movlw	0
   175  00061A  6E95               	movwf	3989,c	;volatile
   176                           
   177                           ;main.c: 111: LATD = 0;
   178  00061C  0E00               	movlw	0
   179  00061E  6E8C               	movwf	3980,c	;volatile
   180                           
   181                           ;main.c: 113: InitLCD();
   182  000620  ECB1  F004         	call	_InitLCD	;wreg free
   183                           
   184                           ;main.c: 115: SetLCDCGRamAddr(0x00);
   185  000624  0E00               	movlw	0
   186  000626  ECE0  F003         	call	_SetLCDCGRamAddr
   187                           
   188                           ;main.c: 116: WriteDataLCD(0b00000);
   189  00062A  0E00               	movlw	0
   190  00062C  EC37  F004         	call	_WriteDataLCD
   191                           
   192                           ;main.c: 117: WriteDataLCD(0b01111);
   193  000630  0E0F               	movlw	15
   194  000632  EC37  F004         	call	_WriteDataLCD
   195                           
   196                           ;main.c: 118: WriteDataLCD(0b10001);
   197  000636  0E11               	movlw	17
   198  000638  EC37  F004         	call	_WriteDataLCD
   199                           
   200                           ;main.c: 119: WriteDataLCD(0b10001);
   201  00063C  0E11               	movlw	17
   202  00063E  EC37  F004         	call	_WriteDataLCD
   203                           
   204                           ;main.c: 120: WriteDataLCD(0b10001);
   205  000642  0E11               	movlw	17
   206  000644  EC37  F004         	call	_WriteDataLCD
   207                           
   208                           ;main.c: 121: WriteDataLCD(0b01111);
   209  000648  0E0F               	movlw	15
   210  00064A  EC37  F004         	call	_WriteDataLCD
   211                           
   212                           ;main.c: 122: WriteDataLCD(0b00111);
   213  00064E  0E07               	movlw	7
   214  000650  EC37  F004         	call	_WriteDataLCD
   215                           
   216                           ;main.c: 123: WriteDataLCD(0b00111);
   217  000654  0E07               	movlw	7
   218  000656  EC37  F004         	call	_WriteDataLCD
   219                           
   220                           ;main.c: 126: SetLCDCGRamAddr(0x08);
   221  00065A  0E08               	movlw	8
   222  00065C  ECE0  F003         	call	_SetLCDCGRamAddr
   223                           
   224                           ;main.c: 127: WriteDataLCD(0b11111);
   225  000660  0E1F               	movlw	31
   226  000662  EC37  F004         	call	_WriteDataLCD
   227                           
   228                           ;main.c: 128: WriteDataLCD(0b10001);
   229  000666  0E11               	movlw	17
   230  000668  EC37  F004         	call	_WriteDataLCD
   231                           
   232                           ;main.c: 129: WriteDataLCD(0b10001);
   233  00066C  0E11               	movlw	17
   234  00066E  EC37  F004         	call	_WriteDataLCD
   235                           
   236                           ;main.c: 130: WriteDataLCD(0b10101);
   237  000672  0E15               	movlw	21
   238  000674  EC37  F004         	call	_WriteDataLCD
   239                           
   240                           ;main.c: 131: WriteDataLCD(0b10001);
   241  000678  0E11               	movlw	17
   242  00067A  EC37  F004         	call	_WriteDataLCD
   243                           
   244                           ;main.c: 132: WriteDataLCD(0b10001);
   245  00067E  0E11               	movlw	17
   246  000680  EC37  F004         	call	_WriteDataLCD
   247                           
   248                           ;main.c: 133: WriteDataLCD(0b10001);
   249  000684  0E11               	movlw	17
   250  000686  EC37  F004         	call	_WriteDataLCD
   251                           
   252                           ;main.c: 134: WriteDataLCD(0b11111);
   253  00068A  0E1F               	movlw	31
   254  00068C  EC37  F004         	call	_WriteDataLCD
   255                           
   256                           ;main.c: 136: WriteCmdLCD(0b00000010);
   257  000690  0E02               	movlw	2
   258  000692  EC57  F004         	call	_WriteCmdLCD
   259                           
   260                           ;main.c: 137: putLCD("Hello World9");
   261  000696  0E01               	movlw	low STR_1
   262  000698  6E03               	movwf	putLCD@buffer,c
   263  00069A  0E06               	movlw	high STR_1
   264  00069C  6E04               	movwf	putLCD@buffer+1,c
   265  00069E  EC95  F004         	call	_putLCD	;wreg free
   266                           
   267                           ;main.c: 139: SetLCDDDRamAddr(0x040);
   268  0006A2  0E40               	movlw	64
   269  0006A4  EC0D  F004         	call	_SetLCDDDRamAddr
   270                           
   271                           ;main.c: 140: putLCD("LCD Down");
   272  0006A8  0E0E               	movlw	low STR_2
   273  0006AA  6E03               	movwf	putLCD@buffer,c
   274  0006AC  0E06               	movlw	high STR_2
   275  0006AE  6E04               	movwf	putLCD@buffer+1,c
   276  0006B0  EC95  F004         	call	_putLCD	;wreg free
   277                           
   278                           ;main.c: 141: WriteDataLCD(0);
   279  0006B4  0E00               	movlw	0
   280  0006B6  EC37  F004         	call	_WriteDataLCD
   281                           
   282                           ;main.c: 142: WriteDataLCD(1);
   283  0006BA  0E01               	movlw	1
   284  0006BC  EC37  F004         	call	_WriteDataLCD
   285  0006C0  D000               	goto	l1072
   286  0006C2                     l1072:
   287                           
   288                           ;main.c: 152: {
   289                           ;main.c: 154: LATDbits.LD0 = 1;
   290  0006C2  808C               	bsf	3980,0,c	;volatile
   291                           
   292                           ;main.c: 155: Delay1KTCYx(50);
   293  0006C4  0E32               	movlw	50
   294  0006C6  ECCD  F004         	call	_Delay1KTCYx
   295                           
   296                           ;main.c: 157: LATDbits.LD1 = 1;
   297  0006CA  828C               	bsf	3980,1,c	;volatile
   298                           
   299                           ;main.c: 158: Delay1KTCYx(50);
   300  0006CC  0E32               	movlw	50
   301  0006CE  ECCD  F004         	call	_Delay1KTCYx
   302                           
   303                           ;main.c: 160: LATDbits.LD2 = 1;
   304  0006D2  848C               	bsf	3980,2,c	;volatile
   305                           
   306                           ;main.c: 161: Delay1KTCYx(50);
   307  0006D4  0E32               	movlw	50
   308  0006D6  ECCD  F004         	call	_Delay1KTCYx
   309                           
   310                           ;main.c: 163: LATDbits.LD3 = 1;
   311  0006DA  868C               	bsf	3980,3,c	;volatile
   312                           
   313                           ;main.c: 164: Delay1KTCYx(50);
   314  0006DC  0E32               	movlw	50
   315  0006DE  ECCD  F004         	call	_Delay1KTCYx
   316                           
   317                           ;main.c: 166: LATDbits.LD4 = 1;
   318  0006E2  888C               	bsf	3980,4,c	;volatile
   319                           
   320                           ;main.c: 167: Delay1KTCYx(50);
   321  0006E4  0E32               	movlw	50
   322  0006E6  ECCD  F004         	call	_Delay1KTCYx
   323                           
   324                           ;main.c: 169: LATDbits.LD5 = 1;
   325  0006EA  8A8C               	bsf	3980,5,c	;volatile
   326                           
   327                           ;main.c: 170: Delay1KTCYx(50);
   328  0006EC  0E32               	movlw	50
   329  0006EE  ECCD  F004         	call	_Delay1KTCYx
   330                           
   331                           ;main.c: 172: LATDbits.LD6 = 1;
   332  0006F2  8C8C               	bsf	3980,6,c	;volatile
   333                           
   334                           ;main.c: 173: Delay1KTCYx(50);
   335  0006F4  0E32               	movlw	50
   336  0006F6  ECCD  F004         	call	_Delay1KTCYx
   337                           
   338                           ;main.c: 175: LATDbits.LD7 = 1;
   339  0006FA  8E8C               	bsf	3980,7,c	;volatile
   340                           
   341                           ;main.c: 176: Delay1KTCYx(50);
   342  0006FC  0E32               	movlw	50
   343  0006FE  ECCD  F004         	call	_Delay1KTCYx
   344                           
   345                           ;main.c: 179: LATD = 0;
   346  000702  0E00               	movlw	0
   347  000704  6E8C               	movwf	3980,c	;volatile
   348                           
   349                           ;main.c: 180: Delay1KTCYx(50);
   350  000706  0E32               	movlw	50
   351  000708  ECCD  F004         	call	_Delay1KTCYx
   352  00070C  D7DA               	goto	l1072
   353  00070E  EF00  F000         	goto	start
   354  000712                     __end_of_main:
   355                           	opt stack 0
   356                           tblptru	equ	0xFF8
   357                           tblptrh	equ	0xFF7
   358                           
   359 ;; *************** function _putLCD *****************
   360 ;; Defined at:
   361 ;;		line 365 in file "main.c"
   362 ;; Parameters:    Size  Location     Type
   363 ;;  buffer          2    2[COMRAM] PTR unsigned char 
   364 ;;		 -> STR_2(9), STR_1(13), 
   365 ;; Auto vars:     Size  Location     Type
   366 ;;		None
   367 ;; Return value:  Size  Location     Type
   368 ;;		None               void
   369 ;; Registers used:
   370 ;;		wreg, status,2, status,0, tblptrl, tblptrh, tblptru, cstack
   371 ;; Tracked objects:
   372 ;;		On entry : 0/0
   373 ;;		On exit  : 0/0
   374 ;;		Unchanged: 0/0
   375 ;; Data sizes:     COMRAM   BANK0   BANK1   BANK2   BANK3   BANK4   BANK5
   376 ;;      Params:         2       0       0       0       0       0       0
   377 ;;      Locals:         0       0       0       0       0       0       0
   378 ;;      Temps:          0       0       0       0       0       0       0
   379 ;;      Totals:         2       0       0       0       0       0       0
   380 ;;Total ram usage:        2 bytes
   381 ;; Hardware stack levels used:    1
   382 ;; Hardware stack levels required when called:    3
   383 ;; This function calls:
   384 ;;		_BusyLCD
   385 ;;		_WriteDataLCD
   386 ;; This function is called by:
   387 ;;		_main
   388 ;; This function uses a non-reentrant model
   389 ;;
   390                           
   391                           	psect	text1
   392  00092A                     __ptext1:
   393                           	opt stack 0
   394  00092A                     _putLCD:
   395                           	opt stack 27
   396                           
   397                           ;main.c: 367: while(*buffer)
   398                           
   399                           ;incstack = 0
   400  00092A  D011               	goto	l1018
   401                           
   402                           ;main.c: 368: {
   403                           ;main.c: 369: while(BusyLCD());
   404  00092C  D000               	goto	l1012
   405  00092E                     l1012:
   406  00092E  EC77  F004         	call	_BusyLCD	;wreg free
   407  000932  0900               	iorlw	0
   408  000934  A4D8               	btfss	status,2,c
   409  000936  D7FB               	goto	l1012
   410                           
   411                           ;main.c: 370: WriteDataLCD(*buffer);
   412  000938  C003  FFF6         	movff	putLCD@buffer,tblptrl
   413  00093C  C004  FFF7         	movff	putLCD@buffer+1,tblptrh
   414  000940                     	if	0	;tblptru may be non-zero
   415  000940                     	endif
   416  000940                     	if	0	;tblptru may be non-zero
   417  000940                     	endif
   418  000940  0008               	tblrd		*
   419  000942  50F5               	movf	tablat,w,c
   420  000944  EC37  F004         	call	_WriteDataLCD
   421                           
   422                           ;main.c: 371: buffer++;
   423  000948  4A03               	infsnz	putLCD@buffer,f,c
   424  00094A  2A04               	incf	putLCD@buffer+1,f,c
   425  00094C  D000               	goto	l1018
   426  00094E                     l1018:
   427  00094E  C003  FFF6         	movff	putLCD@buffer,tblptrl
   428  000952  C004  FFF7         	movff	putLCD@buffer+1,tblptrh
   429  000956                     	if	0	;tblptru may be non-zero
   430  000956                     	endif
   431  000956                     	if	0	;tblptru may be non-zero
   432  000956                     	endif
   433  000956  0008               	tblrd		*
   434  000958  50F5               	movf	tablat,w,c
   435  00095A  0900               	iorlw	0
   436  00095C  A4D8               	btfss	status,2,c
   437  00095E  D7E7               	goto	l1012
   438                           
   439                           ;main.c: 372: }
   440                           ;main.c: 373: return;
   441  000960  0012               	return		;funcret
   442  000962                     __end_of_putLCD:
   443                           	opt stack 0
   444                           tblptru	equ	0xFF8
   445                           tblptrh	equ	0xFF7
   446                           tblptrl	equ	0xFF6
   447                           tablat	equ	0xFF5
   448                           status	equ	0xFD8
   449                           
   450 ;; *************** function _WriteDataLCD *****************
   451 ;; Defined at:
   452 ;;		line 376 in file "main.c"
   453 ;; Parameters:    Size  Location     Type
   454 ;;  data            1    wreg     unsigned char 
   455 ;; Auto vars:     Size  Location     Type
   456 ;;  data            1    1[COMRAM] unsigned char 
   457 ;; Return value:  Size  Location     Type
   458 ;;		None               void
   459 ;; Registers used:
   460 ;;		wreg, status,2, status,0, cstack
   461 ;; Tracked objects:
   462 ;;		On entry : 0/0
   463 ;;		On exit  : 0/0
   464 ;;		Unchanged: 0/0
   465 ;; Data sizes:     COMRAM   BANK0   BANK1   BANK2   BANK3   BANK4   BANK5
   466 ;;      Params:         0       0       0       0       0       0       0
   467 ;;      Locals:         1       0       0       0       0       0       0
   468 ;;      Temps:          0       0       0       0       0       0       0
   469 ;;      Totals:         1       0       0       0       0       0       0
   470 ;;Total ram usage:        1 bytes
   471 ;; Hardware stack levels used:    1
   472 ;; Hardware stack levels required when called:    2
   473 ;; This function calls:
   474 ;;		_DelayFor18TCY
   475 ;; This function is called by:
   476 ;;		_main
   477 ;;		_putLCD
   478 ;; This function uses a non-reentrant model
   479 ;;
   480                           
   481                           	psect	text2
   482  00086E                     __ptext2:
   483                           	opt stack 0
   484  00086E                     _WriteDataLCD:
   485                           	opt stack 27
   486                           
   487                           ;incstack = 0
   488                           ;WriteDataLCD@data stored from wreg
   489  00086E  6E02               	movwf	WriteDataLCD@data,c
   490                           
   491                           ;main.c: 379: TRISC &= 0xf0;
   492  000870  0EF0               	movlw	240
   493  000872  1694               	andwf	3988,f,c	;volatile
   494                           
   495                           ;main.c: 380: PORTC &= 0xf0;
   496  000874  0EF0               	movlw	240
   497  000876  1682               	andwf	3970,f,c	;volatile
   498                           
   499                           ;main.c: 381: PORTC |= ((data>>4)&0x0f);
   500  000878  3802               	swapf	WriteDataLCD@data,w,c
   501  00087A  0B0F               	andlw	15
   502  00087C  0B0F               	andlw	15
   503  00087E  1282               	iorwf	3970,f,c	;volatile
   504                           
   505                           ;main.c: 383: LATCbits.LATC4 = 1;
   506  000880  888B               	bsf	3979,4,c	;volatile
   507                           
   508                           ;main.c: 384: LATCbits.LATC5 = 0;
   509  000882  9A8B               	bcf	3979,5,c	;volatile
   510                           
   511                           ;main.c: 385: DelayFor18TCY();
   512  000884  ECE7  F004         	call	_DelayFor18TCY	;wreg free
   513                           
   514                           ;main.c: 386: LATCbits.LATC6 = 1;
   515  000888  8C8B               	bsf	3979,6,c	;volatile
   516                           
   517                           ;main.c: 387: DelayFor18TCY();
   518  00088A  ECE7  F004         	call	_DelayFor18TCY	;wreg free
   519                           
   520                           ;main.c: 388: LATCbits.LATC6 = 0;
   521  00088E  9C8B               	bcf	3979,6,c	;volatile
   522                           
   523                           ;main.c: 390: PORTC &= 0xf0;
   524  000890  0EF0               	movlw	240
   525  000892  1682               	andwf	3970,f,c	;volatile
   526                           
   527                           ;main.c: 391: PORTC |= (data&0x0f);
   528  000894  5002               	movf	WriteDataLCD@data,w,c
   529  000896  0B0F               	andlw	15
   530  000898  1282               	iorwf	3970,f,c	;volatile
   531                           
   532                           ;main.c: 393: DelayFor18TCY();
   533  00089A  ECE7  F004         	call	_DelayFor18TCY	;wreg free
   534                           
   535                           ;main.c: 394: LATCbits.LATC6 = 1;
   536  00089E  8C8B               	bsf	3979,6,c	;volatile
   537                           
   538                           ;main.c: 395: DelayFor18TCY();
   539  0008A0  ECE7  F004         	call	_DelayFor18TCY	;wreg free
   540                           
   541                           ;main.c: 396: LATCbits.LATC6 = 0;
   542  0008A4  9C8B               	bcf	3979,6,c	;volatile
   543                           
   544                           ;main.c: 398: TRISC |= 0x0f;
   545  0008A6  0E0F               	movlw	15
   546  0008A8  1294               	iorwf	3988,f,c	;volatile
   547  0008AA  0012               	return	
   548                           
   549                           ;main.c: 400: return;
   550  0008AC  0012               	return		;funcret
   551  0008AE                     __end_of_WriteDataLCD:
   552                           	opt stack 0
   553                           tblptru	equ	0xFF8
   554                           tblptrh	equ	0xFF7
   555                           tblptrl	equ	0xFF6
   556                           tablat	equ	0xFF5
   557                           status	equ	0xFD8
   558                           
   559 ;; *************** function _SetLCDCGRamAddr *****************
   560 ;; Defined at:
   561 ;;		line 338 in file "main.c"
   562 ;; Parameters:    Size  Location     Type
   563 ;;  CGaddr          1    wreg     unsigned char 
   564 ;; Auto vars:     Size  Location     Type
   565 ;;  CGaddr          1    4[COMRAM] unsigned char 
   566 ;; Return value:  Size  Location     Type
   567 ;;		None               void
   568 ;; Registers used:
   569 ;;		wreg, status,2, status,0, cstack
   570 ;; Tracked objects:
   571 ;;		On entry : 0/0
   572 ;;		On exit  : 0/0
   573 ;;		Unchanged: 0/0
   574 ;; Data sizes:     COMRAM   BANK0   BANK1   BANK2   BANK3   BANK4   BANK5
   575 ;;      Params:         0       0       0       0       0       0       0
   576 ;;      Locals:         1       0       0       0       0       0       0
   577 ;;      Temps:          3       0       0       0       0       0       0
   578 ;;      Totals:         4       0       0       0       0       0       0
   579 ;;Total ram usage:        4 bytes
   580 ;; Hardware stack levels used:    1
   581 ;; Hardware stack levels required when called:    2
   582 ;; This function calls:
   583 ;;		_DelayFor18TCY
   584 ;; This function is called by:
   585 ;;		_main
   586 ;; This function uses a non-reentrant model
   587 ;;
   588                           
   589                           	psect	text3
   590  0007C0                     __ptext3:
   591                           	opt stack 0
   592  0007C0                     _SetLCDCGRamAddr:
   593                           	opt stack 28
   594                           
   595                           ;incstack = 0
   596                           ;SetLCDCGRamAddr@CGaddr stored from wreg
   597  0007C0  6E05               	movwf	SetLCDCGRamAddr@CGaddr,c
   598                           
   599                           ;main.c: 342: TRISC &= 0xf0;
   600  0007C2  0EF0               	movlw	240
   601  0007C4  1694               	andwf	3988,f,c	;volatile
   602                           
   603                           ;main.c: 343: PORTC &= 0xf0;
   604  0007C6  0EF0               	movlw	240
   605  0007C8  1682               	andwf	3970,f,c	;volatile
   606                           
   607                           ;main.c: 344: PORTC |= (((CGaddr |0b01000000)>>4) & 0x0f);
   608  0007CA  5005               	movf	SetLCDCGRamAddr@CGaddr,w,c
   609  0007CC  6E02               	movwf	??_SetLCDCGRamAddr& (0+255),c
   610  0007CE  6A03               	clrf	(??_SetLCDCGRamAddr+1)& (0+255),c
   611  0007D0  0E40               	movlw	64
   612  0007D2  1202               	iorwf	??_SetLCDCGRamAddr,f,c
   613  0007D4  0E00               	movlw	0
   614  0007D6  1203               	iorwf	??_SetLCDCGRamAddr+1,f,c
   615  0007D8  0E04               	movlw	4
   616  0007DA  6E04               	movwf	(??_SetLCDCGRamAddr+2)& (0+255),c
   617  0007DC                     u115:
   618  0007DC  3403               	rlcf	??_SetLCDCGRamAddr+1,w,c
   619  0007DE  3203               	rrcf	??_SetLCDCGRamAddr+1,f,c
   620  0007E0  3202               	rrcf	??_SetLCDCGRamAddr,f,c
   621  0007E2  2E04               	decfsz	(??_SetLCDCGRamAddr+2)& (0+255),f,c
   622  0007E4  D7FB               	goto	u115
   623  0007E6  5002               	movf	??_SetLCDCGRamAddr,w,c
   624  0007E8  0B0F               	andlw	15
   625  0007EA  1282               	iorwf	3970,f,c	;volatile
   626                           
   627                           ;main.c: 346: LATCbits.LATC5 = 0;
   628  0007EC  9A8B               	bcf	3979,5,c	;volatile
   629                           
   630                           ;main.c: 347: LATCbits.LATC4 = 0;
   631  0007EE  988B               	bcf	3979,4,c	;volatile
   632                           
   633                           ;main.c: 348: DelayFor18TCY();
   634  0007F0  ECE7  F004         	call	_DelayFor18TCY	;wreg free
   635                           
   636                           ;main.c: 349: LATCbits.LATC6 = 1;
   637  0007F4  8C8B               	bsf	3979,6,c	;volatile
   638                           
   639                           ;main.c: 350: DelayFor18TCY();
   640  0007F6  ECE7  F004         	call	_DelayFor18TCY	;wreg free
   641                           
   642                           ;main.c: 351: LATCbits.LATC6 = 0;
   643  0007FA  9C8B               	bcf	3979,6,c	;volatile
   644                           
   645                           ;main.c: 353: PORTC &= 0xf0;
   646  0007FC  0EF0               	movlw	240
   647  0007FE  1682               	andwf	3970,f,c	;volatile
   648                           
   649                           ;main.c: 354: PORTC |= (CGaddr&0x0f);
   650  000800  5005               	movf	SetLCDCGRamAddr@CGaddr,w,c
   651  000802  0B0F               	andlw	15
   652  000804  1282               	iorwf	3970,f,c	;volatile
   653                           
   654                           ;main.c: 356: DelayFor18TCY();
   655  000806  ECE7  F004         	call	_DelayFor18TCY	;wreg free
   656                           
   657                           ;main.c: 357: LATCbits.LATC6 = 1;
   658  00080A  8C8B               	bsf	3979,6,c	;volatile
   659                           
   660                           ;main.c: 358: DelayFor18TCY();
   661  00080C  ECE7  F004         	call	_DelayFor18TCY	;wreg free
   662                           
   663                           ;main.c: 359: LATCbits.LATC6 = 0;
   664  000810  9C8B               	bcf	3979,6,c	;volatile
   665                           
   666                           ;main.c: 361: TRISC |= 0x0f;
   667  000812  0E0F               	movlw	15
   668  000814  1294               	iorwf	3988,f,c	;volatile
   669  000816  0012               	return	
   670                           
   671                           ;main.c: 362: return;
   672  000818  0012               	return		;funcret
   673  00081A                     __end_of_SetLCDCGRamAddr:
   674                           	opt stack 0
   675                           tblptru	equ	0xFF8
   676                           tblptrh	equ	0xFF7
   677                           tblptrl	equ	0xFF6
   678                           tablat	equ	0xFF5
   679                           status	equ	0xFD8
   680                           
   681 ;; *************** function _InitLCD *****************
   682 ;; Defined at:
   683 ;;		line 184 in file "main.c"
   684 ;; Parameters:    Size  Location     Type
   685 ;;		None
   686 ;; Auto vars:     Size  Location     Type
   687 ;;		None
   688 ;; Return value:  Size  Location     Type
   689 ;;		None               void
   690 ;; Registers used:
   691 ;;		wreg, status,2, status,0, cstack
   692 ;; Tracked objects:
   693 ;;		On entry : 0/0
   694 ;;		On exit  : 0/0
   695 ;;		Unchanged: 0/0
   696 ;; Data sizes:     COMRAM   BANK0   BANK1   BANK2   BANK3   BANK4   BANK5
   697 ;;      Params:         0       0       0       0       0       0       0
   698 ;;      Locals:         0       0       0       0       0       0       0
   699 ;;      Temps:          0       0       0       0       0       0       0
   700 ;;      Totals:         0       0       0       0       0       0       0
   701 ;;Total ram usage:        0 bytes
   702 ;; Hardware stack levels used:    1
   703 ;; Hardware stack levels required when called:    4
   704 ;; This function calls:
   705 ;;		_BusyLCD
   706 ;;		_OpenLCD
   707 ;;		_WriteCmdLCD
   708 ;; This function is called by:
   709 ;;		_main
   710 ;; This function uses a non-reentrant model
   711 ;;
   712                           
   713                           	psect	text4
   714  000962                     __ptext4:
   715                           	opt stack 0
   716  000962                     _InitLCD:
   717                           	opt stack 26
   718                           
   719                           ;main.c: 185: OpenLCD(0b00101100 & 0b00111000);
   720                           
   721                           ;incstack = 0
   722  000962  0E28               	movlw	40
   723  000964  EC89  F003         	call	_OpenLCD
   724                           
   725                           ;main.c: 186: while(BusyLCD());
   726  000968  D000               	goto	l878
   727  00096A                     l878:
   728  00096A  EC77  F004         	call	_BusyLCD	;wreg free
   729  00096E  0900               	iorlw	0
   730  000970  A4D8               	btfss	status,2,c
   731  000972  D7FB               	goto	l878
   732                           
   733                           ;main.c: 187: WriteCmdLCD(0x06);
   734  000974  0E06               	movlw	6
   735  000976  EC57  F004         	call	_WriteCmdLCD
   736                           
   737                           ;main.c: 188: WriteCmdLCD(0x0C);
   738  00097A  0E0C               	movlw	12
   739  00097C  EC57  F004         	call	_WriteCmdLCD
   740  000980  0012               	return		;funcret
   741  000982                     __end_of_InitLCD:
   742                           	opt stack 0
   743                           tblptru	equ	0xFF8
   744                           tblptrh	equ	0xFF7
   745                           tblptrl	equ	0xFF6
   746                           tablat	equ	0xFF5
   747                           status	equ	0xFD8
   748                           
   749 ;; *************** function _OpenLCD *****************
   750 ;; Defined at:
   751 ;;		line 202 in file "main.c"
   752 ;; Parameters:    Size  Location     Type
   753 ;;  lcdtype         1    wreg     unsigned char 
   754 ;; Auto vars:     Size  Location     Type
   755 ;;  lcdtype         1    5[COMRAM] unsigned char 
   756 ;; Return value:  Size  Location     Type
   757 ;;		None               void
   758 ;; Registers used:
   759 ;;		wreg, status,2, status,0, cstack
   760 ;; Tracked objects:
   761 ;;		On entry : 0/0
   762 ;;		On exit  : 0/0
   763 ;;		Unchanged: 0/0
   764 ;; Data sizes:     COMRAM   BANK0   BANK1   BANK2   BANK3   BANK4   BANK5
   765 ;;      Params:         0       0       0       0       0       0       0
   766 ;;      Locals:         1       0       0       0       0       0       0
   767 ;;      Temps:          0       0       0       0       0       0       0
   768 ;;      Totals:         1       0       0       0       0       0       0
   769 ;;Total ram usage:        1 bytes
   770 ;; Hardware stack levels used:    1
   771 ;; Hardware stack levels required when called:    3
   772 ;; This function calls:
   773 ;;		_BusyLCD
   774 ;;		_Delay10KTCYx
   775 ;;		_DelayPORLCD
   776 ;;		_SetLCDDDRamAddr
   777 ;;		_WriteCmdLCD
   778 ;; This function is called by:
   779 ;;		_InitLCD
   780 ;; This function uses a non-reentrant model
   781 ;;
   782                           
   783                           	psect	text5
   784  000712                     __ptext5:
   785                           	opt stack 0
   786  000712                     _OpenLCD:
   787                           	opt stack 26
   788                           
   789                           ;incstack = 0
   790                           ;OpenLCD@lcdtype stored from wreg
   791  000712  6E06               	movwf	OpenLCD@lcdtype,c
   792                           
   793                           ;main.c: 207: TRISCbits.TRISC5 = 0;
   794  000714  9A94               	bcf	3988,5,c	;volatile
   795                           
   796                           ;main.c: 208: TRISCbits.TRISC4 = 0;
   797  000716  9894               	bcf	3988,4,c	;volatile
   798                           
   799                           ;main.c: 209: TRISCbits.TRISC6 = 0;
   800  000718  9C94               	bcf	3988,6,c	;volatile
   801                           
   802                           ;main.c: 210: LATCbits.LATC5 = 0;
   803  00071A  9A8B               	bcf	3979,5,c	;volatile
   804                           
   805                           ;main.c: 211: LATCbits.LATC4 = 0;
   806  00071C  988B               	bcf	3979,4,c	;volatile
   807                           
   808                           ;main.c: 212: LATCbits.LATC6 = 0;
   809  00071E  9C8B               	bcf	3979,6,c	;volatile
   810                           
   811                           ;main.c: 215: DelayPORLCD();
   812  000720  ECE3  F004         	call	_DelayPORLCD	;wreg free
   813                           
   814                           ;main.c: 217: WriteCmdLCD(0x30);
   815  000724  0E30               	movlw	48
   816  000726  EC57  F004         	call	_WriteCmdLCD
   817                           
   818                           ;main.c: 218: Delay10KTCYx(0x05);
   819  00072A  0E05               	movlw	5
   820  00072C  ECC1  F004         	call	_Delay10KTCYx
   821                           
   822                           ;main.c: 220: WriteCmdLCD(0x30);
   823  000730  0E30               	movlw	48
   824  000732  EC57  F004         	call	_WriteCmdLCD
   825                           
   826                           ;main.c: 221: Delay10KTCYx(0x01);
   827  000736  0E01               	movlw	1
   828  000738  ECC1  F004         	call	_Delay10KTCYx
   829                           
   830                           ;main.c: 223: WriteCmdLCD(0x32);
   831  00073C  0E32               	movlw	50
   832  00073E  EC57  F004         	call	_WriteCmdLCD
   833                           
   834                           ;main.c: 224: while( BusyLCD() );
   835  000742  D000               	goto	l848
   836  000744                     l848:
   837  000744  EC77  F004         	call	_BusyLCD	;wreg free
   838  000748  0900               	iorlw	0
   839  00074A  B4D8               	btfsc	status,2,c
   840  00074C  D002               	goto	l850
   841  00074E  D7FA               	goto	l848
   842                           
   843                           ;main.c: 229: while(BusyLCD());
   844  000750  D000               	goto	l850
   845  000752                     l850:
   846  000752  EC77  F004         	call	_BusyLCD	;wreg free
   847  000756  0900               	iorlw	0
   848  000758  A4D8               	btfss	status,2,c
   849  00075A  D7FB               	goto	l850
   850                           
   851                           ;main.c: 230: WriteCmdLCD(lcdtype);
   852  00075C  5006               	movf	OpenLCD@lcdtype,w,c
   853  00075E  EC57  F004         	call	_WriteCmdLCD
   854                           
   855                           ;main.c: 233: while(BusyLCD());
   856  000762  D000               	goto	l854
   857  000764                     l854:
   858  000764  EC77  F004         	call	_BusyLCD	;wreg free
   859  000768  0900               	iorlw	0
   860  00076A  A4D8               	btfss	status,2,c
   861  00076C  D7FB               	goto	l854
   862                           
   863                           ;main.c: 234: WriteCmdLCD(0b00001011&0b00001101&0b00001110);
   864  00076E  0E08               	movlw	8
   865  000770  EC57  F004         	call	_WriteCmdLCD
   866                           
   867                           ;main.c: 235: while(BusyLCD());
   868  000774  D000               	goto	l858
   869  000776                     l858:
   870  000776  EC77  F004         	call	_BusyLCD	;wreg free
   871  00077A  0900               	iorlw	0
   872  00077C  A4D8               	btfss	status,2,c
   873  00077E  D7FB               	goto	l858
   874                           
   875                           ;main.c: 236: WriteCmdLCD(0b00001111&0b00001111&0b00001111);
   876  000780  0E0F               	movlw	15
   877  000782  EC57  F004         	call	_WriteCmdLCD
   878                           
   879                           ;main.c: 239: while(BusyLCD());
   880  000786  D000               	goto	l862
   881  000788                     l862:
   882  000788  EC77  F004         	call	_BusyLCD	;wreg free
   883  00078C  0900               	iorlw	0
   884  00078E  A4D8               	btfss	status,2,c
   885  000790  D7FB               	goto	l862
   886                           
   887                           ;main.c: 240: WriteCmdLCD(0x01);
   888  000792  0E01               	movlw	1
   889  000794  EC57  F004         	call	_WriteCmdLCD
   890                           
   891                           ;main.c: 243: while(BusyLCD());
   892  000798  D000               	goto	l866
   893  00079A                     l866:
   894  00079A  EC77  F004         	call	_BusyLCD	;wreg free
   895  00079E  0900               	iorlw	0
   896  0007A0  A4D8               	btfss	status,2,c
   897  0007A2  D7FB               	goto	l866
   898                           
   899                           ;main.c: 244: WriteCmdLCD(0b00000100);
   900  0007A4  0E04               	movlw	4
   901  0007A6  EC57  F004         	call	_WriteCmdLCD
   902                           
   903                           ;main.c: 247: while(BusyLCD());
   904  0007AA  D000               	goto	l870
   905  0007AC                     l870:
   906  0007AC  EC77  F004         	call	_BusyLCD	;wreg free
   907  0007B0  0900               	iorlw	0
   908  0007B2  A4D8               	btfss	status,2,c
   909  0007B4  D7FB               	goto	l870
   910                           
   911                           ;main.c: 248: SetLCDDDRamAddr(0x80);
   912  0007B6  0E80               	movlw	128
   913  0007B8  EC0D  F004         	call	_SetLCDDDRamAddr
   914  0007BC  0012               	return	
   915                           
   916                           ;main.c: 250: return;
   917  0007BE  0012               	return		;funcret
   918  0007C0                     __end_of_OpenLCD:
   919                           	opt stack 0
   920                           tblptru	equ	0xFF8
   921                           tblptrh	equ	0xFF7
   922                           tblptrl	equ	0xFF6
   923                           tablat	equ	0xFF5
   924                           status	equ	0xFD8
   925                           
   926 ;; *************** function _WriteCmdLCD *****************
   927 ;; Defined at:
   928 ;;		line 253 in file "main.c"
   929 ;; Parameters:    Size  Location     Type
   930 ;;  cmd             1    wreg     unsigned char 
   931 ;; Auto vars:     Size  Location     Type
   932 ;;  cmd             1    1[COMRAM] unsigned char 
   933 ;; Return value:  Size  Location     Type
   934 ;;		None               void
   935 ;; Registers used:
   936 ;;		wreg, status,2, status,0, cstack
   937 ;; Tracked objects:
   938 ;;		On entry : 0/0
   939 ;;		On exit  : 0/0
   940 ;;		Unchanged: 0/0
   941 ;; Data sizes:     COMRAM   BANK0   BANK1   BANK2   BANK3   BANK4   BANK5
   942 ;;      Params:         0       0       0       0       0       0       0
   943 ;;      Locals:         1       0       0       0       0       0       0
   944 ;;      Temps:          0       0       0       0       0       0       0
   945 ;;      Totals:         1       0       0       0       0       0       0
   946 ;;Total ram usage:        1 bytes
   947 ;; Hardware stack levels used:    1
   948 ;; Hardware stack levels required when called:    2
   949 ;; This function calls:
   950 ;;		_DelayFor18TCY
   951 ;; This function is called by:
   952 ;;		_main
   953 ;;		_InitLCD
   954 ;;		_OpenLCD
   955 ;; This function uses a non-reentrant model
   956 ;;
   957                           
   958                           	psect	text6
   959  0008AE                     __ptext6:
   960                           	opt stack 0
   961  0008AE                     _WriteCmdLCD:
   962                           	opt stack 28
   963                           
   964                           ;incstack = 0
   965                           ;WriteCmdLCD@cmd stored from wreg
   966  0008AE  6E02               	movwf	WriteCmdLCD@cmd,c
   967                           
   968                           ;main.c: 256: TRISC &= 0xf0;
   969  0008B0  0EF0               	movlw	240
   970  0008B2  1694               	andwf	3988,f,c	;volatile
   971                           
   972                           ;main.c: 257: PORTC &= 0xf0;
   973  0008B4  0EF0               	movlw	240
   974  0008B6  1682               	andwf	3970,f,c	;volatile
   975                           
   976                           ;main.c: 258: PORTC |= (cmd>>4)&0x0f;
   977  0008B8  3802               	swapf	WriteCmdLCD@cmd,w,c
   978  0008BA  0B0F               	andlw	15
   979  0008BC  0B0F               	andlw	15
   980  0008BE  1282               	iorwf	3970,f,c	;volatile
   981                           
   982                           ;main.c: 260: LATCbits.LATC5 = 0;
   983  0008C0  9A8B               	bcf	3979,5,c	;volatile
   984                           
   985                           ;main.c: 261: LATCbits.LATC4 = 0;
   986  0008C2  988B               	bcf	3979,4,c	;volatile
   987                           
   988                           ;main.c: 262: DelayFor18TCY();
   989  0008C4  ECE7  F004         	call	_DelayFor18TCY	;wreg free
   990                           
   991                           ;main.c: 263: LATCbits.LATC6 = 1;
   992  0008C8  8C8B               	bsf	3979,6,c	;volatile
   993                           
   994                           ;main.c: 264: DelayFor18TCY();
   995  0008CA  ECE7  F004         	call	_DelayFor18TCY	;wreg free
   996                           
   997                           ;main.c: 265: LATCbits.LATC6 = 0;
   998  0008CE  9C8B               	bcf	3979,6,c	;volatile
   999                           
  1000                           ;main.c: 267: PORTC &= 0xf0;
  1001  0008D0  0EF0               	movlw	240
  1002  0008D2  1682               	andwf	3970,f,c	;volatile
  1003                           
  1004                           ;main.c: 268: PORTC |= cmd&0x0f;
  1005  0008D4  5002               	movf	WriteCmdLCD@cmd,w,c
  1006  0008D6  0B0F               	andlw	15
  1007  0008D8  1282               	iorwf	3970,f,c	;volatile
  1008                           
  1009                           ;main.c: 270: DelayFor18TCY();
  1010  0008DA  ECE7  F004         	call	_DelayFor18TCY	;wreg free
  1011                           
  1012                           ;main.c: 271: LATCbits.LATC6 = 1;
  1013  0008DE  8C8B               	bsf	3979,6,c	;volatile
  1014                           
  1015                           ;main.c: 272: DelayFor18TCY();
  1016  0008E0  ECE7  F004         	call	_DelayFor18TCY	;wreg free
  1017                           
  1018                           ;main.c: 273: LATCbits.LATC6 = 0;
  1019  0008E4  9C8B               	bcf	3979,6,c	;volatile
  1020                           
  1021                           ;main.c: 275: TRISC |= 0x0f;
  1022  0008E6  0E0F               	movlw	15
  1023  0008E8  1294               	iorwf	3988,f,c	;volatile
  1024  0008EA  0012               	return	
  1025                           
  1026                           ;main.c: 277: return;
  1027  0008EC  0012               	return		;funcret
  1028  0008EE                     __end_of_WriteCmdLCD:
  1029                           	opt stack 0
  1030                           tblptru	equ	0xFF8
  1031                           tblptrh	equ	0xFF7
  1032                           tblptrl	equ	0xFF6
  1033                           tablat	equ	0xFF5
  1034                           status	equ	0xFD8
  1035                           
  1036 ;; *************** function _SetLCDDDRamAddr *****************
  1037 ;; Defined at:
  1038 ;;		line 311 in file "main.c"
  1039 ;; Parameters:    Size  Location     Type
  1040 ;;  DDaddr          1    wreg     unsigned char 
  1041 ;; Auto vars:     Size  Location     Type
  1042 ;;  DDaddr          1    4[COMRAM] unsigned char 
  1043 ;; Return value:  Size  Location     Type
  1044 ;;		None               void
  1045 ;; Registers used:
  1046 ;;		wreg, status,2, status,0, cstack
  1047 ;; Tracked objects:
  1048 ;;		On entry : 0/0
  1049 ;;		On exit  : 0/0
  1050 ;;		Unchanged: 0/0
  1051 ;; Data sizes:     COMRAM   BANK0   BANK1   BANK2   BANK3   BANK4   BANK5
  1052 ;;      Params:         0       0       0       0       0       0       0
  1053 ;;      Locals:         1       0       0       0       0       0       0
  1054 ;;      Temps:          3       0       0       0       0       0       0
  1055 ;;      Totals:         4       0       0       0       0       0       0
  1056 ;;Total ram usage:        4 bytes
  1057 ;; Hardware stack levels used:    1
  1058 ;; Hardware stack levels required when called:    2
  1059 ;; This function calls:
  1060 ;;		_DelayFor18TCY
  1061 ;; This function is called by:
  1062 ;;		_main
  1063 ;;		_OpenLCD
  1064 ;; This function uses a non-reentrant model
  1065 ;;
  1066                           
  1067                           	psect	text7
  1068  00081A                     __ptext7:
  1069                           	opt stack 0
  1070  00081A                     _SetLCDDDRamAddr:
  1071                           	opt stack 28
  1072                           
  1073                           ;incstack = 0
  1074                           ;SetLCDDDRamAddr@DDaddr stored from wreg
  1075  00081A  6E05               	movwf	SetLCDDDRamAddr@DDaddr,c
  1076                           
  1077                           ;main.c: 314: TRISC &= 0xf0;
  1078  00081C  0EF0               	movlw	240
  1079  00081E  1694               	andwf	3988,f,c	;volatile
  1080                           
  1081                           ;main.c: 315: PORTC &= 0xf0;
  1082  000820  0EF0               	movlw	240
  1083  000822  1682               	andwf	3970,f,c	;volatile
  1084                           
  1085                           ;main.c: 316: PORTC |= (((DDaddr | 0b10000000)>>4) & 0x0f);
  1086  000824  5005               	movf	SetLCDDDRamAddr@DDaddr,w,c
  1087  000826  6E02               	movwf	??_SetLCDDDRamAddr& (0+255),c
  1088  000828  6A03               	clrf	(??_SetLCDDDRamAddr+1)& (0+255),c
  1089  00082A  8E02               	bsf	??_SetLCDDDRamAddr,7,c
  1090  00082C  0E04               	movlw	4
  1091  00082E  6E04               	movwf	(??_SetLCDDDRamAddr+2)& (0+255),c
  1092  000830                     u15:
  1093  000830  3403               	rlcf	??_SetLCDDDRamAddr+1,w,c
  1094  000832  3203               	rrcf	??_SetLCDDDRamAddr+1,f,c
  1095  000834  3202               	rrcf	??_SetLCDDDRamAddr,f,c
  1096  000836  2E04               	decfsz	(??_SetLCDDDRamAddr+2)& (0+255),f,c
  1097  000838  D7FB               	goto	u15
  1098  00083A  5002               	movf	??_SetLCDDDRamAddr,w,c
  1099  00083C  0B0F               	andlw	15
  1100  00083E  1282               	iorwf	3970,f,c	;volatile
  1101                           
  1102                           ;main.c: 318: LATCbits.LATC5 = 0;
  1103  000840  9A8B               	bcf	3979,5,c	;volatile
  1104                           
  1105                           ;main.c: 319: LATCbits.LATC4 = 0;
  1106  000842  988B               	bcf	3979,4,c	;volatile
  1107                           
  1108                           ;main.c: 320: DelayFor18TCY();
  1109  000844  ECE7  F004         	call	_DelayFor18TCY	;wreg free
  1110                           
  1111                           ;main.c: 321: LATCbits.LATC6 = 1;
  1112  000848  8C8B               	bsf	3979,6,c	;volatile
  1113                           
  1114                           ;main.c: 322: DelayFor18TCY();
  1115  00084A  ECE7  F004         	call	_DelayFor18TCY	;wreg free
  1116                           
  1117                           ;main.c: 323: LATCbits.LATC6 = 0;
  1118  00084E  9C8B               	bcf	3979,6,c	;volatile
  1119                           
  1120                           ;main.c: 325: PORTC &= 0xf0;
  1121  000850  0EF0               	movlw	240
  1122  000852  1682               	andwf	3970,f,c	;volatile
  1123                           
  1124                           ;main.c: 326: PORTC |= (DDaddr&0x0f);
  1125  000854  5005               	movf	SetLCDDDRamAddr@DDaddr,w,c
  1126  000856  0B0F               	andlw	15
  1127  000858  1282               	iorwf	3970,f,c	;volatile
  1128                           
  1129                           ;main.c: 328: DelayFor18TCY();
  1130  00085A  ECE7  F004         	call	_DelayFor18TCY	;wreg free
  1131                           
  1132                           ;main.c: 329: LATCbits.LATC6 = 1;
  1133  00085E  8C8B               	bsf	3979,6,c	;volatile
  1134                           
  1135                           ;main.c: 330: DelayFor18TCY();
  1136  000860  ECE7  F004         	call	_DelayFor18TCY	;wreg free
  1137                           
  1138                           ;main.c: 331: LATCbits.LATC6 = 0;
  1139  000864  9C8B               	bcf	3979,6,c	;volatile
  1140                           
  1141                           ;main.c: 333: TRISC |= 0x0f;
  1142  000866  0E0F               	movlw	15
  1143  000868  1294               	iorwf	3988,f,c	;volatile
  1144  00086A  0012               	return	
  1145                           
  1146                           ;main.c: 335: return;
  1147  00086C  0012               	return		;funcret
  1148  00086E                     __end_of_SetLCDDDRamAddr:
  1149                           	opt stack 0
  1150                           tblptru	equ	0xFF8
  1151                           tblptrh	equ	0xFF7
  1152                           tblptrl	equ	0xFF6
  1153                           tablat	equ	0xFF5
  1154                           status	equ	0xFD8
  1155                           
  1156 ;; *************** function _DelayPORLCD *****************
  1157 ;; Defined at:
  1158 ;;		line 194 in file "main.c"
  1159 ;; Parameters:    Size  Location     Type
  1160 ;;		None
  1161 ;; Auto vars:     Size  Location     Type
  1162 ;;		None
  1163 ;; Return value:  Size  Location     Type
  1164 ;;		None               void
  1165 ;; Registers used:
  1166 ;;		wreg, cstack
  1167 ;; Tracked objects:
  1168 ;;		On entry : 0/0
  1169 ;;		On exit  : 0/0
  1170 ;;		Unchanged: 0/0
  1171 ;; Data sizes:     COMRAM   BANK0   BANK1   BANK2   BANK3   BANK4   BANK5
  1172 ;;      Params:         0       0       0       0       0       0       0
  1173 ;;      Locals:         0       0       0       0       0       0       0
  1174 ;;      Temps:          0       0       0       0       0       0       0
  1175 ;;      Totals:         0       0       0       0       0       0       0
  1176 ;;Total ram usage:        0 bytes
  1177 ;; Hardware stack levels used:    1
  1178 ;; Hardware stack levels required when called:    1
  1179 ;; This function calls:
  1180 ;;		_Delay1TCYx
  1181 ;; This function is called by:
  1182 ;;		_OpenLCD
  1183 ;; This function uses a non-reentrant model
  1184 ;;
  1185                           
  1186                           	psect	text8
  1187  0009C6                     __ptext8:
  1188                           	opt stack 0
  1189  0009C6                     _DelayPORLCD:
  1190                           	opt stack 27
  1191                           
  1192                           ;main.c: 195: Delay1TCYx(30);
  1193                           
  1194                           ;incstack = 0
  1195  0009C6  0E1E               	movlw	30
  1196  0009C8  ECDD  F004         	call	_Delay1TCYx
  1197  0009CC  0012               	return		;funcret
  1198  0009CE                     __end_of_DelayPORLCD:
  1199                           	opt stack 0
  1200                           tblptru	equ	0xFF8
  1201                           tblptrh	equ	0xFF7
  1202                           tblptrl	equ	0xFF6
  1203                           tablat	equ	0xFF5
  1204                           status	equ	0xFD8
  1205                           
  1206 ;; *************** function _Delay10KTCYx *****************
  1207 ;; Defined at:
  1208 ;;		line 8 in file "C:\Program Files (x86)\Microchip\xc8\v1.34\sources\pic18\d10ktcyx.c"
  1209 ;; Parameters:    Size  Location     Type
  1210 ;;  unit            1    wreg     unsigned char 
  1211 ;; Auto vars:     Size  Location     Type
  1212 ;;  unit            1    1[COMRAM] unsigned char 
  1213 ;; Return value:  Size  Location     Type
  1214 ;;		None               void
  1215 ;; Registers used:
  1216 ;;		wreg
  1217 ;; Tracked objects:
  1218 ;;		On entry : 0/0
  1219 ;;		On exit  : 0/0
  1220 ;;		Unchanged: 0/0
  1221 ;; Data sizes:     COMRAM   BANK0   BANK1   BANK2   BANK3   BANK4   BANK5
  1222 ;;      Params:         0       0       0       0       0       0       0
  1223 ;;      Locals:         1       0       0       0       0       0       0
  1224 ;;      Temps:          1       0       0       0       0       0       0
  1225 ;;      Totals:         2       0       0       0       0       0       0
  1226 ;;Total ram usage:        2 bytes
  1227 ;; Hardware stack levels used:    1
  1228 ;; This function calls:
  1229 ;;		Nothing
  1230 ;; This function is called by:
  1231 ;;		_OpenLCD
  1232 ;; This function uses a non-reentrant model
  1233 ;;
  1234                           
  1235                           	psect	text9
  1236  000982                     __ptext9:
  1237                           	opt stack 0
  1238  000982                     _Delay10KTCYx:
  1239                           	opt stack 28
  1240                           
  1241                           ;incstack = 0
  1242                           ;Delay10KTCYx@unit stored from wreg
  1243  000982  6E02               	movwf	Delay10KTCYx@unit,c
  1244  000984  0E0D               	movlw	13
  1245  000986  6E01               	movwf	??_Delay10KTCYx& (0+255),c
  1246  000988  0EFC               	movlw	252
  1247  00098A                     u167:
  1248  00098A  2EE8               	decfsz	wreg,f,c
  1249  00098C  D7FE               	goto	u167
  1250  00098E  2E01               	decfsz	??_Delay10KTCYx& (0+255),f,c
  1251  000990  D7FC               	goto	u167
  1252  000992  2E02               	decfsz	Delay10KTCYx@unit,f,c
  1253  000994  D7F7               	goto	l808
  1254  000996  0012               	return	
  1255  000998  0012               	return		;funcret
  1256  00099A                     __end_of_Delay10KTCYx:
  1257                           	opt stack 0
  1258                           tblptru	equ	0xFF8
  1259                           tblptrh	equ	0xFF7
  1260                           tblptrl	equ	0xFF6
  1261                           tablat	equ	0xFF5
  1262                           wreg	equ	0xFE8
  1263                           status	equ	0xFD8
  1264                           
  1265 ;; *************** function _BusyLCD *****************
  1266 ;; Defined at:
  1267 ;;		line 280 in file "main.c"
  1268 ;; Parameters:    Size  Location     Type
  1269 ;;		None
  1270 ;; Auto vars:     Size  Location     Type
  1271 ;;		None
  1272 ;; Return value:  Size  Location     Type
  1273 ;;                  1    wreg      unsigned char 
  1274 ;; Registers used:
  1275 ;;		wreg, cstack
  1276 ;; Tracked objects:
  1277 ;;		On entry : 0/0
  1278 ;;		On exit  : 0/0
  1279 ;;		Unchanged: 0/0
  1280 ;; Data sizes:     COMRAM   BANK0   BANK1   BANK2   BANK3   BANK4   BANK5
  1281 ;;      Params:         0       0       0       0       0       0       0
  1282 ;;      Locals:         0       0       0       0       0       0       0
  1283 ;;      Temps:          0       0       0       0       0       0       0
  1284 ;;      Totals:         0       0       0       0       0       0       0
  1285 ;;Total ram usage:        0 bytes
  1286 ;; Hardware stack levels used:    1
  1287 ;; Hardware stack levels required when called:    2
  1288 ;; This function calls:
  1289 ;;		_DelayFor18TCY
  1290 ;; This function is called by:
  1291 ;;		_InitLCD
  1292 ;;		_OpenLCD
  1293 ;;		_putLCD
  1294 ;; This function uses a non-reentrant model
  1295 ;;
  1296                           
  1297                           	psect	text10
  1298  0008EE                     __ptext10:
  1299                           	opt stack 0
  1300  0008EE                     _BusyLCD:
  1301                           	opt stack 27
  1302                           
  1303                           ;main.c: 282: LATCbits.LATC5 = 1;
  1304                           
  1305                           ;incstack = 0
  1306  0008EE  8A8B               	bsf	3979,5,c	;volatile
  1307                           
  1308                           ;main.c: 283: LATCbits.LATC4 = 0;
  1309  0008F0  988B               	bcf	3979,4,c	;volatile
  1310                           
  1311                           ;main.c: 284: DelayFor18TCY();
  1312  0008F2  ECE7  F004         	call	_DelayFor18TCY	;wreg free
  1313                           
  1314                           ;main.c: 285: LATCbits.LATC6 = 1;
  1315  0008F6  8C8B               	bsf	3979,6,c	;volatile
  1316                           
  1317                           ;main.c: 286: DelayFor18TCY();
  1318  0008F8  ECE7  F004         	call	_DelayFor18TCY	;wreg free
  1319                           
  1320                           ;main.c: 288: if(PORTC&0x08)
  1321  0008FC  A682               	btfss	3970,3,c	;volatile
  1322  0008FE  D00A               	goto	l87
  1323                           
  1324                           ;main.c: 289: {
  1325                           ;main.c: 290: LATCbits.LATC6 = 0;
  1326  000900  9C8B               	bcf	3979,6,c	;volatile
  1327                           
  1328                           ;main.c: 291: DelayFor18TCY();
  1329  000902  ECE7  F004         	call	_DelayFor18TCY	;wreg free
  1330                           
  1331                           ;main.c: 292: LATCbits.LATC6 = 1;
  1332  000906  8C8B               	bsf	3979,6,c	;volatile
  1333                           
  1334                           ;main.c: 293: DelayFor18TCY();
  1335  000908  ECE7  F004         	call	_DelayFor18TCY	;wreg free
  1336                           
  1337                           ;main.c: 294: LATCbits.LATC6 = 0;
  1338  00090C  9C8B               	bcf	3979,6,c	;volatile
  1339                           
  1340                           ;main.c: 295: LATCbits.LATC5 = 0;
  1341  00090E  9A8B               	bcf	3979,5,c	;volatile
  1342                           
  1343                           ;main.c: 296: return 1;
  1344  000910  0E01               	movlw	1
  1345                           
  1346                           ;main.c: 297: }
  1347  000912  0012               	return	
  1348  000914                     l87:
  1349                           
  1350                           ;main.c: 298: else
  1351                           ;main.c: 299: {
  1352                           ;main.c: 300: LATCbits.LATC6 = 0;
  1353  000914  9C8B               	bcf	3979,6,c	;volatile
  1354                           
  1355                           ;main.c: 301: DelayFor18TCY();
  1356  000916  ECE7  F004         	call	_DelayFor18TCY	;wreg free
  1357                           
  1358                           ;main.c: 302: LATCbits.LATC6 = 1;
  1359  00091A  8C8B               	bsf	3979,6,c	;volatile
  1360                           
  1361                           ;main.c: 303: DelayFor18TCY();
  1362  00091C  ECE7  F004         	call	_DelayFor18TCY	;wreg free
  1363                           
  1364                           ;main.c: 304: LATCbits.LATC6 = 0;
  1365  000920  9C8B               	bcf	3979,6,c	;volatile
  1366                           
  1367                           ;main.c: 305: LATCbits.LATC5 = 0;
  1368  000922  9A8B               	bcf	3979,5,c	;volatile
  1369                           
  1370                           ;main.c: 306: return 0;
  1371  000924  0E00               	movlw	0
  1372  000926  0012               	return	
  1373  000928  0012               	return		;funcret
  1374  00092A                     __end_of_BusyLCD:
  1375                           	opt stack 0
  1376                           tblptru	equ	0xFF8
  1377                           tblptrh	equ	0xFF7
  1378                           tblptrl	equ	0xFF6
  1379                           tablat	equ	0xFF5
  1380                           wreg	equ	0xFE8
  1381                           status	equ	0xFD8
  1382                           
  1383 ;; *************** function _DelayFor18TCY *****************
  1384 ;; Defined at:
  1385 ;;		line 191 in file "main.c"
  1386 ;; Parameters:    Size  Location     Type
  1387 ;;		None
  1388 ;; Auto vars:     Size  Location     Type
  1389 ;;		None
  1390 ;; Return value:  Size  Location     Type
  1391 ;;		None               void
  1392 ;; Registers used:
  1393 ;;		wreg, cstack
  1394 ;; Tracked objects:
  1395 ;;		On entry : 0/0
  1396 ;;		On exit  : 0/0
  1397 ;;		Unchanged: 0/0
  1398 ;; Data sizes:     COMRAM   BANK0   BANK1   BANK2   BANK3   BANK4   BANK5
  1399 ;;      Params:         0       0       0       0       0       0       0
  1400 ;;      Locals:         0       0       0       0       0       0       0
  1401 ;;      Temps:          0       0       0       0       0       0       0
  1402 ;;      Totals:         0       0       0       0       0       0       0
  1403 ;;Total ram usage:        0 bytes
  1404 ;; Hardware stack levels used:    1
  1405 ;; Hardware stack levels required when called:    1
  1406 ;; This function calls:
  1407 ;;		_Delay1TCYx
  1408 ;; This function is called by:
  1409 ;;		_WriteCmdLCD
  1410 ;;		_BusyLCD
  1411 ;;		_SetLCDDDRamAddr
  1412 ;;		_SetLCDCGRamAddr
  1413 ;;		_WriteDataLCD
  1414 ;; This function uses a non-reentrant model
  1415 ;;
  1416                           
  1417                           	psect	text11
  1418  0009CE                     __ptext11:
  1419                           	opt stack 0
  1420  0009CE                     _DelayFor18TCY:
  1421                           	opt stack 27
  1422                           
  1423                           ;main.c: 192: Delay1TCYx(18);
  1424                           
  1425                           ;incstack = 0
  1426  0009CE  0E12               	movlw	18
  1427  0009D0  ECDD  F004         	call	_Delay1TCYx
  1428  0009D4  0012               	return		;funcret
  1429  0009D6                     __end_of_DelayFor18TCY:
  1430                           	opt stack 0
  1431                           tblptru	equ	0xFF8
  1432                           tblptrh	equ	0xFF7
  1433                           tblptrl	equ	0xFF6
  1434                           tablat	equ	0xFF5
  1435                           wreg	equ	0xFE8
  1436                           status	equ	0xFD8
  1437                           
  1438 ;; *************** function _Delay1TCYx *****************
  1439 ;; Defined at:
  1440 ;;		line 4 in file "C:\Program Files (x86)\Microchip\xc8\v1.34\sources\pic18\d1tcyx.c"
  1441 ;; Parameters:    Size  Location     Type
  1442 ;;  unit            1    wreg     unsigned char 
  1443 ;; Auto vars:     Size  Location     Type
  1444 ;;  unit            1    0[COMRAM] unsigned char 
  1445 ;; Return value:  Size  Location     Type
  1446 ;;		None               void
  1447 ;; Registers used:
  1448 ;;		wreg
  1449 ;; Tracked objects:
  1450 ;;		On entry : 0/0
  1451 ;;		On exit  : 0/0
  1452 ;;		Unchanged: 0/0
  1453 ;; Data sizes:     COMRAM   BANK0   BANK1   BANK2   BANK3   BANK4   BANK5
  1454 ;;      Params:         0       0       0       0       0       0       0
  1455 ;;      Locals:         1       0       0       0       0       0       0
  1456 ;;      Temps:          0       0       0       0       0       0       0
  1457 ;;      Totals:         1       0       0       0       0       0       0
  1458 ;;Total ram usage:        1 bytes
  1459 ;; Hardware stack levels used:    1
  1460 ;; This function calls:
  1461 ;;		Nothing
  1462 ;; This function is called by:
  1463 ;;		_DelayFor18TCY
  1464 ;;		_DelayPORLCD
  1465 ;;		_DelayLCD
  1466 ;; This function uses a non-reentrant model
  1467 ;;
  1468                           
  1469                           	psect	text12
  1470  0009BA                     __ptext12:
  1471                           	opt stack 0
  1472  0009BA                     _Delay1TCYx:
  1473                           	opt stack 27
  1474                           
  1475                           ;incstack = 0
  1476                           ;Delay1TCYx@unit stored from wreg
  1477  0009BA  6E01               	movwf	Delay1TCYx@unit,c
  1478  0009BC                     l347:
  1479  0009BC  F000               	nop	
  1480  0009BE  2E01               	decfsz	Delay1TCYx@unit,f,c
  1481  0009C0  D7FD               	goto	l347
  1482  0009C2  0012               	return	
  1483  0009C4  0012               	return		;funcret
  1484  0009C6                     __end_of_Delay1TCYx:
  1485                           	opt stack 0
  1486                           tblptru	equ	0xFF8
  1487                           tblptrh	equ	0xFF7
  1488                           tblptrl	equ	0xFF6
  1489                           tablat	equ	0xFF5
  1490                           wreg	equ	0xFE8
  1491                           status	equ	0xFD8
  1492                           
  1493 ;; *************** function _Delay1KTCYx *****************
  1494 ;; Defined at:
  1495 ;;		line 8 in file "C:\Program Files (x86)\Microchip\xc8\v1.34\sources\pic18\d1ktcyx.c"
  1496 ;; Parameters:    Size  Location     Type
  1497 ;;  unit            1    wreg     unsigned char 
  1498 ;; Auto vars:     Size  Location     Type
  1499 ;;  unit            1    0[COMRAM] unsigned char 
  1500 ;; Return value:  Size  Location     Type
  1501 ;;		None               void
  1502 ;; Registers used:
  1503 ;;		wreg
  1504 ;; Tracked objects:
  1505 ;;		On entry : 0/0
  1506 ;;		On exit  : 0/0
  1507 ;;		Unchanged: 0/0
  1508 ;; Data sizes:     COMRAM   BANK0   BANK1   BANK2   BANK3   BANK4   BANK5
  1509 ;;      Params:         0       0       0       0       0       0       0
  1510 ;;      Locals:         1       0       0       0       0       0       0
  1511 ;;      Temps:          0       0       0       0       0       0       0
  1512 ;;      Totals:         1       0       0       0       0       0       0
  1513 ;;Total ram usage:        1 bytes
  1514 ;; Hardware stack levels used:    1
  1515 ;; This function calls:
  1516 ;;		Nothing
  1517 ;; This function is called by:
  1518 ;;		_main
  1519 ;; This function uses a non-reentrant model
  1520 ;;
  1521                           
  1522                           	psect	text13
  1523  00099A                     __ptext13:
  1524                           	opt stack 0
  1525  00099A                     _Delay1KTCYx:
  1526                           	opt stack 30
  1527                           
  1528                           ;incstack = 0
  1529                           ;Delay1KTCYx@unit stored from wreg
  1530  00099A  6E01               	movwf	Delay1KTCYx@unit,c
  1531  00099C  0EFA               	movlw	250
  1532  00099E                     u177:
  1533  00099E  F000               	nop	
  1534  0009A0  2EE8               	decfsz	wreg,f,c
  1535  0009A2  D7FD               	goto	u177
  1536  0009A4  2E01               	decfsz	Delay1KTCYx@unit,f,c
  1537  0009A6  D7FA               	goto	l916
  1538  0009A8  0012               	return	
  1539  0009AA  0012               	return		;funcret
  1540  0009AC                     __end_of_Delay1KTCYx:
  1541                           	opt stack 0
  1542                           tblptru	equ	0xFF8
  1543                           tblptrh	equ	0xFF7
  1544                           tblptrl	equ	0xFF6
  1545                           tablat	equ	0xFF5
  1546                           wreg	equ	0xFE8
  1547                           status	equ	0xFD8
  1548                           tblptru	equ	0xFF8
  1549                           tblptrh	equ	0xFF7
  1550                           tblptrl	equ	0xFF6
  1551                           tablat	equ	0xFF5
  1552                           wreg	equ	0xFE8
  1553                           status	equ	0xFD8
  1554                           
  1555                           	psect	rparam
  1556  0000                     tblptru	equ	0xFF8
  1557                           tblptrh	equ	0xFF7
  1558                           tblptrl	equ	0xFF6
  1559                           tablat	equ	0xFF5
  1560                           wreg	equ	0xFE8
  1561                           status	equ	0xFD8


Data Sizes:
    Strings     22
    Constant    0
    Data        0
    BSS         0
    Persistent  0
    Stack       0

Auto Spaces:
    Space          Size  Autos    Used
    COMRAM           95      6       6
    BANK0           160      0       0
    BANK1           256      0       0
    BANK2           256      0       0
    BANK3           256      0       0
    BANK4           256      0       0
    BANK5           256      0       0

Pointer List with Targets:

    putLCD@buffer	PTR unsigned char  size(2) Largest target is 13
		 -> STR_2(CODE[9]), STR_1(CODE[13]), 


Critical Paths under _main in COMRAM

    _putLCD->_WriteDataLCD
    _InitLCD->_OpenLCD
    _OpenLCD->_SetLCDDDRamAddr
    _DelayPORLCD->_Delay1TCYx
    _DelayFor18TCY->_Delay1TCYx

Critical Paths under _main in BANK0

    None.

Critical Paths under _main in BANK1

    None.

Critical Paths under _main in BANK2

    None.

Critical Paths under _main in BANK3

    None.

Critical Paths under _main in BANK4

    None.

Critical Paths under _main in BANK5

    None.

Call Graph Tables:

 ---------------------------------------------------------------------------------
 (Depth) Function   	        Calls       Base Space   Used Autos Params    Refs
 ---------------------------------------------------------------------------------
 (0) _main                                                 0     0      0     616
                        _Delay1KTCYx
                            _InitLCD
                    _SetLCDCGRamAddr
                    _SetLCDDDRamAddr
                        _WriteCmdLCD
                       _WriteDataLCD
                             _putLCD
 ---------------------------------------------------------------------------------
 (1) _putLCD                                               2     0      2     211
                                              2 COMRAM     2     0      2
                            _BusyLCD
                       _WriteDataLCD
 ---------------------------------------------------------------------------------
 (2) _WriteDataLCD                                         1     1      0      45
                                              1 COMRAM     1     1      0
                      _DelayFor18TCY
 ---------------------------------------------------------------------------------
 (1) _SetLCDCGRamAddr                                      4     4      0      45
                                              1 COMRAM     4     4      0
                      _DelayFor18TCY
 ---------------------------------------------------------------------------------
 (1) _InitLCD                                              0     0      0     210
                            _BusyLCD
                            _OpenLCD
                        _WriteCmdLCD
 ---------------------------------------------------------------------------------
 (2) _OpenLCD                                              1     1      0     150
                                              5 COMRAM     1     1      0
                            _BusyLCD
                       _Delay10KTCYx
                        _DelayPORLCD
                    _SetLCDDDRamAddr
                        _WriteCmdLCD
 ---------------------------------------------------------------------------------
 (1) _WriteCmdLCD                                          1     1      0      45
                                              1 COMRAM     1     1      0
                      _DelayFor18TCY
 ---------------------------------------------------------------------------------
 (1) _SetLCDDDRamAddr                                      4     4      0      45
                                              1 COMRAM     4     4      0
                      _DelayFor18TCY
 ---------------------------------------------------------------------------------
 (3) _DelayPORLCD                                          0     0      0      15
                         _Delay1TCYx
 ---------------------------------------------------------------------------------
 (3) _Delay10KTCYx                                         2     2      0      15
                                              0 COMRAM     2     2      0
 ---------------------------------------------------------------------------------
 (2) _BusyLCD                                              0     0      0      15
                      _DelayFor18TCY
 ---------------------------------------------------------------------------------
 (3) _DelayFor18TCY                                        0     0      0      15
                         _Delay1TCYx
 ---------------------------------------------------------------------------------
 (4) _Delay1TCYx                                           1     1      0      15
                                              0 COMRAM     1     1      0
 ---------------------------------------------------------------------------------
 (1) _Delay1KTCYx                                          1     1      0      15
                                              0 COMRAM     1     1      0
 ---------------------------------------------------------------------------------
 Estimated maximum stack depth 4
 ---------------------------------------------------------------------------------

 Call Graph Graphs:

 _main (ROOT)
   _Delay1KTCYx
   _InitLCD
     _BusyLCD
       _DelayFor18TCY
         _Delay1TCYx
     _OpenLCD
       _BusyLCD
         _DelayFor18TCY
           _Delay1TCYx
       _Delay10KTCYx
       _DelayPORLCD
         _Delay1TCYx
       _SetLCDDDRamAddr
         _DelayFor18TCY
           _Delay1TCYx
       _WriteCmdLCD
         _DelayFor18TCY
           _Delay1TCYx
     _WriteCmdLCD
       _DelayFor18TCY
         _Delay1TCYx
   _SetLCDCGRamAddr
     _DelayFor18TCY
       _Delay1TCYx
   _SetLCDDDRamAddr
     _DelayFor18TCY
       _Delay1TCYx
   _WriteCmdLCD
     _DelayFor18TCY
       _Delay1TCYx
   _WriteDataLCD
     _DelayFor18TCY
       _Delay1TCYx
   _putLCD
     _BusyLCD
       _DelayFor18TCY
         _Delay1TCYx
     _WriteDataLCD
       _DelayFor18TCY
         _Delay1TCYx

 Address spaces:
Name               Size   Autos  Total    Cost      Usage
BITCOMRAM           5F      0       0       0        0.0%
EEDATA             100      0       0       0        0.0%
NULL                 0      0       0       0        0.0%
CODE                 0      0       0       0        0.0%
COMRAM              5F      6       6       1        6.3%
STACK                0      0       0       2        0.0%
DATA                 0      0       0       3        0.0%
BITBANK0            A0      0       0       4        0.0%
BANK0               A0      0       0       5        0.0%
BITBANK1           100      0       0       6        0.0%
BANK1              100      0       0       7        0.0%
BITBANK2           100      0       0       8        0.0%
BANK2              100      0       0       9        0.0%
BITBANK3           100      0       0      10        0.0%
BANK3              100      0       0      11        0.0%
BITBANK4           100      0       0      12        0.0%
BANK4              100      0       0      13        0.0%
BANK5              100      0       0      14        0.0%
ABS                  0      0       0      15        0.0%
BITBANK5           100      0       0      16        0.0%
BIGRAM             5FF      0       0      17        0.0%
BITSFR               0      0       0      40        0.0%
SFR                  0      0       0      40        0.0%


Microchip Technology PIC18 Macro Assembler V1.34 build -361300703 
Symbol Table                                                                                   Tue Apr 14 10:30:04 2015

                      l87 0914                        u15 0830      __size_of_WriteCmdLCD 0040  
            __CFG_CP0$OFF 000000              __CFG_CP1$OFF 000000              __CFG_CP2$OFF 000000  
            __CFG_CP3$OFF 000000                       l347 09BC                       l808 0984  
                     l850 0752                       l916 099C                       l870 07AC  
                     l862 0788                       l854 0764                       l848 0744  
                     l866 079A                       l858 0776                       l878 096A  
            __CFG_CPB$OFF 000000                       u115 07DC                       u167 098A  
                     u177 099E              __CFG_CPD$OFF 000000              __CFG_BORV$30 000000  
   __size_of_WriteDataLCD 0040                       wreg 000FE8              __CFG_LVP$OFF 000000  
              _Delay1TCYx 09BA                      l1012 092E                      l1018 094E  
                    l1072 06C2                      STR_1 0601                      STR_2 060E  
                    _LATD 000F8C                      _main 0618     SetLCDDDRamAddr@DDaddr 0005  
                    start 0000             __CFG_IESO$OFF 000000              ___param_bank 000010  
         __end_of_BusyLCD 092A           __end_of_InitLCD 0982           __end_of_OpenLCD 07C0  
            _WriteDataLCD 086E               _Delay1KTCYx 099A                     ?_main 0001  
                   _PORTC 000F82                     _TRISC 000F94                     _TRISD 000F95  
   __size_of_Delay10KTCYx 0018             __CFG_PWRT$OFF 000000               _DelayPORLCD 09C6  
           __CFG_WRT0$OFF 000000             __CFG_WRT1$OFF 000000             __CFG_WRT2$OFF 000000  
           __CFG_WRT3$OFF 000000            __CFG_EBTR0$OFF 000000            __CFG_FCMEN$OFF 000000  
          __CFG_EBTR1$OFF 000000            __CFG_EBTR2$OFF 000000            __CFG_EBTR3$OFF 000000  
           __CFG_WRTB$OFF 000000             __CFG_WRTC$OFF 000000             __CFG_WRTD$OFF 000000  
          __CFG_EBTRB$OFF 000000                     tablat 000FF5                     status 000FD8  
          __CFG_PBADEN$ON 000000         ??_SetLCDDDRamAddr 0002            __CFG_MCLRE$OFF 000000  
       ??_SetLCDCGRamAddr 0002           __initialization 09AC              __end_of_main 0712  
          WriteCmdLCD@cmd 0002              _Delay10KTCYx 0982                    ??_main 0007  
           __activetblptr 000001               ?_Delay1TCYx 0001            __CFG_WDTEN$OFF 000000  
               ??_BusyLCD 0002                 ??_InitLCD 0007                 ??_OpenLCD 0006  
          __CFG_XINST$OFF 000000            __CFG_STVREN$ON 000000                    _putLCD 092A  
            __mediumconst 0000                    tblptrh 000FF7                    tblptrl 000FF6  
                  tblptru 000FF8                __accesstop 0060   __end_of__initialization 09AC  
           ___rparam_used 000001            __pcstackCOMRAM 0001       __size_of_Delay1TCYx 000C  
         __CFG_LPT1OSC$ON 000000    __size_of_DelayFor18TCY 0008     SetLCDCGRamAddr@CGaddr 0005  
           ??_WriteCmdLCD 0002              ?_Delay1KTCYx 0001                   ?_putLCD 0003  
            ?_DelayPORLCD 0001           _SetLCDDDRamAddr 081A           _SetLCDCGRamAddr 07C0  
                 _BusyLCD 08EE                   _InitLCD 0962                   _OpenLCD 0712  
                 __Hparam 0000                   __Lparam 0000             _DelayFor18TCY 09CE  
            __psmallconst 0600                   __pcinit 09AC                   __ramtop 0600  
         __size_of_putLCD 0038                   __ptext0 0618                   __ptext1 092A  
                 __ptext2 086E                   __ptext3 07C0                   __ptext4 0962  
                 __ptext5 0712                   __ptext6 08AE                   __ptext7 081A  
                 __ptext8 09C6                   __ptext9 0982       __end_of_WriteCmdLCD 08EE  
            ??_Delay1TCYx 0001      end_of_initialization 09AC            ?_DelayFor18TCY 0001  
      __end_of_Delay1TCYx 09C6   __end_of_SetLCDDDRamAddr 086E   __end_of_SetLCDCGRamAddr 081A  
               _TRISCbits 000F94               _WriteCmdLCD 08AE      __size_of_Delay1KTCYx 0012  
          __end_of_putLCD 0962       start_initialization 09AC      __size_of_DelayPORLCD 0008  
         ??_DelayFor18TCY 0002             ?_WriteDataLCD 0001                  ??_putLCD 0005  
          OpenLCD@lcdtype 0006          ?_SetLCDDDRamAddr 0001          ?_SetLCDCGRamAddr 0001  
        WriteDataLCD@data 0002           Delay1KTCYx@unit 0001                  ?_BusyLCD 0001  
                ?_InitLCD 0001                  ?_OpenLCD 0001         __CFG_CCP2MX$PORTC 000000  
          ??_WriteDataLCD 0002             ?_Delay10KTCYx 0001               __smallconst 0600  
                _LATCbits 000F8B                  _LATDbits 000F8C          __CFG_WDTPS$32768 000000  
          ??_Delay10KTCYx 0001              putLCD@buffer 0003          Delay10KTCYx@unit 0002  
        __size_of_BusyLCD 003C          __size_of_InitLCD 0020                  __Hrparam 0000  
        __size_of_OpenLCD 00AE                  __Lrparam 0000              __Lsmallconst 0600  
      __CFG_BOREN$SBORDIS 000000              ?_WriteCmdLCD 0001                  __ptext10 08EE  
                __ptext11 09CE                  __ptext12 09BA                  __ptext13 099A  
    __end_of_WriteDataLCD 08AE             __size_of_main 00FA            Delay1TCYx@unit 0001  
           ??_Delay1KTCYx 0001             ??_DelayPORLCD 0002      __end_of_Delay10KTCYx 099A  
   __end_of_DelayFor18TCY 09D6       __end_of_Delay1KTCYx 09AC       __end_of_DelayPORLCD 09CE  
__size_of_SetLCDDDRamAddr 0054  __size_of_SetLCDCGRamAddr 005A         __CFG_FOSC$INTIO67 000000  
